(dp1
S'output'
p2
S"<type 'exceptions.ValueError'> invalid literal for long() with base 10: 'css'"
p3
sS'layer'
p4
S'C:\\Users\\elisha.bere\\Downloads\\my_python_files\\PIZZZA PROJECT\\web2py_win\\web2py\\applications\\fproject\\controllers/products.py'
p5
sS'code'
p6
S'<code object <module> at 08253728, file "C:\\Users\\elisha.bere\\Downloads\\my_python_files\\PIZZZA PROJECT\\web2py_win\\web2py\\applications\\fproject\\controllers/products.py", line 2>'
p7
sS'snapshot'
p8
(dp9
sS'traceback'
p10
S'Traceback (most recent call last):\n  File "C:\\Users\\elisha.bere\\Downloads\\my_python_files\\PIZZZA PROJECT\\web2py_win\\web2py\\gluon\\restricted.py", line 219, in restricted\n    exec(ccode, environment)\n  File "C:\\Users\\elisha.bere\\Downloads\\my_python_files\\PIZZZA PROJECT\\web2py_win\\web2py\\applications\\fproject\\controllers/products.py", line 83, in <module>\n  File "C:\\Users\\elisha.bere\\Downloads\\my_python_files\\PIZZZA PROJECT\\web2py_win\\web2py\\gluon\\globals.py", line 419, in <lambda>\n    self._caller = lambda f: f()\n  File "C:\\Users\\elisha.bere\\Downloads\\my_python_files\\PIZZZA PROJECT\\web2py_win\\web2py\\gluon\\tools.py", line 3982, in f\n    return action(*a, **b)\n  File "C:\\Users\\elisha.bere\\Downloads\\my_python_files\\PIZZZA PROJECT\\web2py_win\\web2py\\applications\\fproject\\controllers/products.py", line 29, in update\n    row = db(db.products.id==request.args(0)).select()\n  File "C:\\Users\\elisha.bere\\Downloads\\my_python_files\\PIZZZA PROJECT\\web2py_win\\web2py\\gluon\\packages\\dal\\pydal\\objects.py", line 2250, in select\n    return adapter.select(self.query, fields, attributes)\n  File "C:\\Users\\elisha.bere\\Downloads\\my_python_files\\PIZZZA PROJECT\\web2py_win\\web2py\\gluon\\packages\\dal\\pydal\\adapters\\sqlite.py", line 82, in select\n    return super(SQLite, self).select(query, fields, attributes)\n  File "C:\\Users\\elisha.bere\\Downloads\\my_python_files\\PIZZZA PROJECT\\web2py_win\\web2py\\gluon\\packages\\dal\\pydal\\adapters\\base.py", line 757, in select\n    colnames, sql = self._select_wcols(query, fields, **attributes)\n  File "C:\\Users\\elisha.bere\\Downloads\\my_python_files\\PIZZZA PROJECT\\web2py_win\\web2py\\gluon\\packages\\dal\\pydal\\adapters\\base.py", line 672, in _select_wcols\n    query = self.expand(query, query_env=query_env)\n  File "C:\\Users\\elisha.bere\\Downloads\\my_python_files\\PIZZZA PROJECT\\web2py_win\\web2py\\gluon\\packages\\dal\\pydal\\adapters\\base.py", line 434, in _expand\n    rv = op(first, second, **optional_args)\n  File "C:\\Users\\elisha.bere\\Downloads\\my_python_files\\PIZZZA PROJECT\\web2py_win\\web2py\\gluon\\packages\\dal\\pydal\\dialects\\base.py", line 344, in eq\n    self.expand(second, first.type, query_env=query_env))\n  File "C:\\Users\\elisha.bere\\Downloads\\my_python_files\\PIZZZA PROJECT\\web2py_win\\web2py\\gluon\\packages\\dal\\pydal\\dialects\\__init__.py", line 96, in expand\n    return self.adapter.expand(*args, **kwargs)\n  File "C:\\Users\\elisha.bere\\Downloads\\my_python_files\\PIZZZA PROJECT\\web2py_win\\web2py\\gluon\\packages\\dal\\pydal\\adapters\\base.py", line 444, in _expand\n    rv = self.represent(expression, field_type)\n  File "C:\\Users\\elisha.bere\\Downloads\\my_python_files\\PIZZZA PROJECT\\web2py_win\\web2py\\gluon\\packages\\dal\\pydal\\adapters\\base.py", line 381, in represent\n    return super(SQLAdapter, self).represent(obj, field_type)\n  File "C:\\Users\\elisha.bere\\Downloads\\my_python_files\\PIZZZA PROJECT\\web2py_win\\web2py\\gluon\\packages\\dal\\pydal\\adapters\\base.py", line 335, in represent\n    return self.representer.represent(obj, field_type)\n  File "C:\\Users\\elisha.bere\\Downloads\\my_python_files\\PIZZZA PROJECT\\web2py_win\\web2py\\gluon\\packages\\dal\\pydal\\representers\\__init__.py", line 251, in represent\n    rv = self.get_representer_for_type(field_type)(rv, field_type)\n  File "C:\\Users\\elisha.bere\\Downloads\\my_python_files\\PIZZZA PROJECT\\web2py_win\\web2py\\gluon\\packages\\dal\\pydal\\representers\\__init__.py", line 139, in __call__\n    return self.adapt(self.call(value, field_type))\n  File "C:\\Users\\elisha.bere\\Downloads\\my_python_files\\PIZZZA PROJECT\\web2py_win\\web2py\\gluon\\packages\\dal\\pydal\\representers\\__init__.py", line 136, in _call\n    return self.inner_call(value)\n  File "C:\\Users\\elisha.bere\\Downloads\\my_python_files\\PIZZZA PROJECT\\web2py_win\\web2py\\gluon\\packages\\dal\\pydal\\representers\\__init__.py", line 124, in _inner_call\n    return self.obj.f(self.representer, value, **kwargs)\n  File "C:\\Users\\elisha.bere\\Downloads\\my_python_files\\PIZZZA PROJECT\\web2py_win\\web2py\\gluon\\packages\\dal\\pydal\\representers\\base.py", line 26, in _id\n    return str(long(value))\nValueError: invalid literal for long() with base 10: \'css\'\n'
p11
s.