(dp1
S'output'
p2
S"<type 'exceptions.RuntimeError'> File C:\\Users\\elisha.bere\\Downloads\\my_python_files\\PIZZZA PROJECT\\web2py_win\\web2py\\applications\\project\\databases\\c8b669d15150d7109e5f7ab36744a5b7_online_orders.table appears corrupted"
p3
sS'layer'
p4
S'C:\\Users\\elisha.bere\\Downloads\\my_python_files\\PIZZZA PROJECT\\web2py_win\\web2py\\applications\\project\\models\\db.py'
p5
sS'code'
p6
S'<code object <module> at 04A825C0, file "C:\\Users\\elisha.bere\\Downloads\\my_python_files\\PIZZZA PROJECT\\web2py_win\\web2py\\applications\\project\\models\\db.py", line 7>'
p7
sS'snapshot'
p8
(dp9
S'exception'
p10
(dp11
S'__getslice__'
p12
S"<method-wrapper '__getslice__' of exceptions.RuntimeError object>"
p13
sS'__str__'
p14
S"<method-wrapper '__str__' of exceptions.RuntimeError object>"
p15
sS'__reduce__'
p16
S'<built-in method __reduce__ of exceptions.RuntimeError object>'
p17
sS'__dict__'
p18
S'{}'
p19
sS'message'
p20
S"r'File C:\\Users\\elisha.bere\\Downloads\\my_python_fi...ab36744a5b7_online_orders.table appears corrupted'"
p21
sS'__sizeof__'
p22
S'<built-in method __sizeof__ of exceptions.RuntimeError object>'
p23
sS'__init__'
p24
S"<method-wrapper '__init__' of exceptions.RuntimeError object>"
p25
sS'__setattr__'
p26
S"<method-wrapper '__setattr__' of exceptions.RuntimeError object>"
p27
sS'__reduce_ex__'
p28
S'<built-in method __reduce_ex__ of exceptions.RuntimeError object>'
p29
sS'__new__'
p30
S'<built-in method __new__ of type object>'
p31
sS'__format__'
p32
S'<built-in method __format__ of exceptions.RuntimeError object>'
p33
sS'__class__'
p34
S"<type 'exceptions.RuntimeError'>"
p35
sS'__doc__'
p36
S"'Unspecified run-time error.'"
p37
sS'__getitem__'
p38
S"<method-wrapper '__getitem__' of exceptions.RuntimeError object>"
p39
sS'__setstate__'
p40
S'<built-in method __setstate__ of exceptions.RuntimeError object>'
p41
sS'__getattribute__'
p42
S"<method-wrapper '__getattribute__' of exceptions.RuntimeError object>"
p43
sS'args'
p44
S"(r'File C:\\Users\\elisha.bere\\Downloads\\my_python_fi...ab36744a5b7_online_orders.table appears corrupted',)"
p45
sS'__subclasshook__'
p46
S'<built-in method __subclasshook__ of type object>'
p47
sS'__unicode__'
p48
S'<built-in method __unicode__ of exceptions.RuntimeError object>'
p49
sS'__delattr__'
p50
S"<method-wrapper '__delattr__' of exceptions.RuntimeError object>"
p51
sS'__repr__'
p52
S"<method-wrapper '__repr__' of exceptions.RuntimeError object>"
p53
sS'__hash__'
p54
S"<method-wrapper '__hash__' of exceptions.RuntimeError object>"
p55
ssS'evalue'
p56
S'File C:\\Users\\elisha.bere\\Downloads\\my_python_files\\PIZZZA PROJECT\\web2py_win\\web2py\\applications\\project\\databases\\c8b669d15150d7109e5f7ab36744a5b7_online_orders.table appears corrupted'
p57
sS'request'
p58
cgluon.html
XML_unpickle
p59
(S's\x85m\x00\x00<div><table><tr><td style="font-weight:bold;vertical-align:top;">ajax</td><td style="vertical-align:top;">:</td><td><div>True</div></td></tr><tr><td style="font-weight:bold;vertical-align:top;">application</td><td style="vertical-align:top;">:</td><td><div>project</div></td></tr><tr><td style="font-weight:bold;vertical-align:top;">args</td><td style="vertical-align:top;">:</td><td><div><table></table></div></td></tr><tr><td style="font-weight:bold;vertical-align:top;">cid</td><td style="vertical-align:top;">:</td><td><div>c709083715013</div></td></tr><tr><td style="font-weight:bold;vertical-align:top;">client</td><td style="vertical-align:top;">:</td><td><div>127.0.0.1</div></td></tr><tr><td style="font-weight:bold;vertical-align:top;">controller</td><td style="vertical-align:top;">:</td><td><div>appadmin</div></td></tr><tr><td style="font-weight:bold;vertical-align:top;">cookies</td><td style="vertical-align:top;">:</td><td><div><table><tr><td style="font-weight:bold;vertical-align:top;">session_id_admin</td><td style="vertical-align:top;">:</td><td><div>127.0.0.1-9385eae7-8fa3-4627-b9d9-9526b0807a9e<table><tr><td style="font-weight:bold;vertical-align:top;">comment</td><td style="vertical-align:top;">:</td><td><div></div></td></tr><tr><td style="font-weight:bold;vertical-align:top;">domain</td><td style="vertical-align:top;">:</td><td><div></div></td></tr><tr><td style="font-weight:bold;vertical-align:top;">expires</td><td style="vertical-align:top;">:</td><td><div></div></td></tr><tr><td style="font-weight:bold;vertical-align:top;">httponly</td><td style="vertical-align:top;">:</td><td><div></div></td></tr><tr><td style="font-weight:bold;vertical-align:top;">max-age</td><td style="vertical-align:top;">:</td><td><div></div></td></tr><tr><td style="font-weight:bold;vertical-align:top;">path</td><td style="vertical-align:top;">:</td><td><div></div></td></tr><tr><td style="font-weight:bold;vertical-align:top;">secure</td><td style="vertical-align:top;">:</td><td><div></div></td></tr><tr><td style="font-weight:bold;vertical-align:top;">version</td><td style="vertical-align:top;">:</td><td><div></div></td></tr></table></div></td></tr><tr><td style="font-weight:bold;vertical-align:top;">session_id_project</td><td style="vertical-align:top;">:</td><td><div>127.0.0.1-ef192341-78ed-4f15-a1a8-0e4e02b36b7a<table><tr><td style="font-weight:bold;vertical-align:top;">comment</td><td style="vertical-align:top;">:</td><td><div></div></td></tr><tr><td style="font-weight:bold;vertical-align:top;">domain</td><td style="vertical-align:top;">:</td><td><div></div></td></tr><tr><td style="font-weight:bold;vertical-align:top;">expires</td><td style="vertical-align:top;">:</td><td><div></div></td></tr><tr><td style="font-weight:bold;vertical-align:top;">httponly</td><td style="vertical-align:top;">:</td><td><div></div></td></tr><tr><td style="font-weight:bold;vertical-align:top;">max-age</td><td style="vertical-align:top;">:</td><td><div></div></td></tr><tr><td style="font-weight:bold;vertical-align:top;">path</td><td style="vertical-align:top;">:</td><td><div></div></td></tr><tr><td style="font-weight:bold;vertical-align:top;">secure</td><td style="vertical-align:top;">:</td><td><div></div></td></tr><tr><td style="font-weight:bold;vertical-align:top;">version</td><td style="vertical-align:top;">:</td><td><div></div></td></tr></table></div></td></tr><tr><td style="font-weight:bold;vertical-align:top;">session_id_tafari</td><td style="vertical-align:top;">:</td><td><div>127.0.0.1-39ff665a-7562-454d-a27f-4760199be9ca<table><tr><td style="font-weight:bold;vertical-align:top;">comment</td><td style="vertical-align:top;">:</td><td><div></div></td></tr><tr><td style="font-weight:bold;vertical-align:top;">domain</td><td style="vertical-align:top;">:</td><td><div></div></td></tr><tr><td style="font-weight:bold;vertical-align:top;">expires</td><td style="vertical-align:top;">:</td><td><div></div></td></tr><tr><td style="font-weight:bold;vertical-align:top;">httponly</td><td style="vertical-align:top;">:</td><td><div></div></td></tr><tr><td style="font-weight:bold;vertical-align:top;">max-age</td><td style="vertical-align:top;">:</td><td><div></div></td></tr><tr><td style="font-weight:bold;vertical-align:top;">path</td><td style="vertical-align:top;">:</td><td><div></div></td></tr><tr><td style="font-weight:bold;vertical-align:top;">secure</td><td style="vertical-align:top;">:</td><td><div></div></td></tr><tr><td style="font-weight:bold;vertical-align:top;">version</td><td style="vertical-align:top;">:</td><td><div></div></td></tr></table></div></td></tr><tr><td style="font-weight:bold;vertical-align:top;">session_id_welcome</td><td style="vertical-align:top;">:</td><td><div>127.0.0.1-888e0156-e9d6-4d9a-af6f-dc7e9cc9a13c<table><tr><td style="font-weight:bold;vertical-align:top;">comment</td><td style="vertical-align:top;">:</td><td><div></div></td></tr><tr><td style="font-weight:bold;vertical-align:top;">domain</td><td style="vertical-align:top;">:</td><td><div></div></td></tr><tr><td style="font-weight:bold;vertical-align:top;">expires</td><td style="vertical-align:top;">:</td><td><div></div></td></tr><tr><td style="font-weight:bold;vertical-align:top;">httponly</td><td style="vertical-align:top;">:</td><td><div></div></td></tr><tr><td style="font-weight:bold;vertical-align:top;">max-age</td><td style="vertical-align:top;">:</td><td><div></div></td></tr><tr><td style="font-weight:bold;vertical-align:top;">path</td><td style="vertical-align:top;">:</td><td><div></div></td></tr><tr><td style="font-weight:bold;vertical-align:top;">secure</td><td style="vertical-align:top;">:</td><td><div></div></td></tr><tr><td style="font-weight:bold;vertical-align:top;">version</td><td style="vertical-align:top;">:</td><td><div></div></td></tr></table></div></td></tr></table></div></td></tr><tr><td style="font-weight:bold;vertical-align:top;">env</td><td style="vertical-align:top;">:</td><td><div><table><tr><td style="font-weight:bold;vertical-align:top;">CONTENT_TYPE</td><td style="vertical-align:top;">:</td><td><div>application/x-www-form-urlencoded; charset=UTF-8</div></td></tr><tr><td style="font-weight:bold;vertical-align:top;">HTTP_ACCEPT</td><td style="vertical-align:top;">:</td><td><div>*/*</div></td></tr><tr><td style="font-weight:bold;vertical-align:top;">HTTP_ACCEPT_ENCODING</td><td style="vertical-align:top;">:</td><td><div>gzip, deflate</div></td></tr><tr><td style="font-weight:bold;vertical-align:top;">HTTP_ACCEPT_LANGUAGE</td><td style="vertical-align:top;">:</td><td><div>en-US,en;q=0.5</div></td></tr><tr><td style="font-weight:bold;vertical-align:top;">HTTP_CONNECTION</td><td style="vertical-align:top;">:</td><td><div>keep-alive</div></td></tr><tr><td style="font-weight:bold;vertical-align:top;">HTTP_CONTENT_TYPE</td><td style="vertical-align:top;">:</td><td><div>application/x-www-form-urlencoded; charset=UTF-8</div></td></tr><tr><td style="font-weight:bold;vertical-align:top;">HTTP_COOKIE</td><td style="vertical-align:top;">:</td><td><div>__lnkrntdmcvrd=-1; session_id_welcome=127.0.0.1-888e0156-e9d6-4d9a-af6f-dc7e9cc9a13c; session_id_admin=127.0.0.1-9385eae7-8fa3-4627-b9d9-9526b0807a9e; session_id_tafari=127.0.0.1-39ff665a-7562-454d-a27f-4760199be9ca; session_id_project=127.0.0.1-ef192341-78ed-4f15-a1a8-0e4e02b36b7a</div></td></tr><tr><td style="font-weight:bold;vertical-align:top;">HTTP_HOST</td><td style="vertical-align:top;">:</td><td><div>127.0.0.1:8000</div></td></tr><tr><td style="font-weight:bold;vertical-align:top;">HTTP_REFERER</td><td style="vertical-align:top;">:</td><td><div>http://127.0.0.1:8000/admin/default/edit/project/controllers/products.py?id=controllers__products__py</div></td></tr><tr><td style="font-weight:bold;vertical-align:top;">HTTP_USER_AGENT</td><td style="vertical-align:top;">:</td><td><div>Mozilla/5.0 (Windows NT 6.1; Win64; x64; rv:60.0) Gecko/20100101 Firefox/60.0</div></td></tr><tr><td style="font-weight:bold;vertical-align:top;">HTTP_WEB2PY_COMPONENT_ELEMENT</td><td style="vertical-align:top;">:</td><td><div>c709083715013</div></td></tr><tr><td style="font-weight:bold;vertical-align:top;">HTTP_WEB2PY_COMPONENT_LOCATION</td><td style="vertical-align:top;">:</td><td><div>http://127.0.0.1:8000/admin/default/edit/project/controllers/products.py?id=controllers__products__py</div></td></tr><tr><td style="font-weight:bold;vertical-align:top;">HTTP_X_REQUESTED_WITH</td><td style="vertical-align:top;">:</td><td><div>XMLHttpRequest</div></td></tr><tr><td style="font-weight:bold;vertical-align:top;">PATH_INFO</td><td style="vertical-align:top;">:</td><td><div>/project/appadmin/hooks</div></td></tr><tr><td style="font-weight:bold;vertical-align:top;">QUERY_STRING</td><td style="vertical-align:top;">:</td><td><div></div></td></tr><tr><td style="font-weight:bold;vertical-align:top;">REMOTE_ADDR</td><td style="vertical-align:top;">:</td><td><div>127.0.0.1</div></td></tr><tr><td style="font-weight:bold;vertical-align:top;">REMOTE_PORT</td><td style="vertical-align:top;">:</td><td><div>58455</div></td></tr><tr><td style="font-weight:bold;vertical-align:top;">REQUEST_METHOD</td><td style="vertical-align:top;">:</td><td><div>GET</div></td></tr><tr><td style="font-weight:bold;vertical-align:top;">SCRIPT_NAME</td><td style="vertical-align:top;">:</td><td><div></div></td></tr><tr><td style="font-weight:bold;vertical-align:top;">SERVER_NAME</td><td style="vertical-align:top;">:</td><td><div>BRH-D-70QS2</div></td></tr><tr><td style="font-weight:bold;vertical-align:top;">SERVER_PORT</td><td style="vertical-align:top;">:</td><td><div>8000</div></td></tr><tr><td style="font-weight:bold;vertical-align:top;">SERVER_PROTOCOL</td><td style="vertical-align:top;">:</td><td><div>HTTP/1.1</div></td></tr><tr><td style="font-weight:bold;vertical-align:top;">SERVER_SOFTWARE</td><td style="vertical-align:top;">:</td><td><div>Rocket 1.2.6</div></td></tr><tr><td style="font-weight:bold;vertical-align:top;">app_folders</td><td style="vertical-align:top;">:</td><td><div>set([&#x27;C:\\\\Users\\\\elisha.bere\\\\Downloads\\\\my_python_files\\\\PIZZZA PROJECT\\\\web2py_win\\\\web2py\\\\applications\\\\admin\\\\&#x27;, &#x27;C:\\\\Users\\\\elisha.bere\\\\Downloads\\\\my_python_files\\\\PIZZZA PROJECT\\\\web2py_win\\\\web2py\\\\applications\\\\tafari\\\\&#x27;, &#x27;C:\\\\Users\\\\elisha.bere\\\\Downloads\\\\my_python_files\\\\PIZZZA PROJECT\\\\web2py_win\\\\web2py\\\\applications\\\\project\\\\&#x27;, &#x27;C:\\\\Users\\\\elisha.bere\\\\Downloads\\\\my_python_files\\\\PIZZZA PROJECT\\\\web2py_win\\\\web2py\\\\applications\\\\welcome\\\\&#x27;, &#x27;C:\\\\Users\\\\elisha.bere\\\\Downloads\\\\my_python_files\\\\PIZZZA PROJECT\\\\web2py_win\\\\web2py\\\\applications\\\\Tafari\\\\&#x27;])</div></td></tr><tr><td style="font-weight:bold;vertical-align:top;">applications_parent</td><td style="vertical-align:top;">:</td><td><div>C:\\Users\\elisha.bere\\Downloads\\my_python_files\\PIZZZA PROJECT\\web2py_win\\web2py</div></td></tr><tr><td style="font-weight:bold;vertical-align:top;">cmd_args</td><td style="vertical-align:top;">:</td><td><div><table></table></div></td></tr><tr><td style="font-weight:bold;vertical-align:top;">cmd_options</td><td style="vertical-align:top;">:</td><td><div>&lt;Values at 0x338cd50: {&#x27;verbose&#x27;: False, &#x27;ip&#x27;: &#x27;127.0.0.1&#x27;, &#x27;debuglevel&#x27;: 30, &#x27;with_scheduler&#x27;: False, &#x27;shutdown_timeout&#x27;: 5, &#x27;taskbar&#x27;: False, &#x27;with_coverage&#x27;: False, &#x27;pid_filename&#x27;: &#x27;httpserver.pid&#x27;, &#x27;maxthreads&#x27;: None, &#x27;softcron&#x27;: False, &#x27;server_name&#x27;: &#x27;BRH-D-70QS2&#x27;, &#x27;bpython&#x27;: False, &#x27;nogui&#x27;: False, &#x27;port&#x27;: 8000, &#x27;print_errors&#x27;: False, &#x27;extcron&#x27;: False, &#x27;runcron&#x27;: False, &#x27;run_system_tests&#x27;: False, &#x27;test&#x27;: None, &#x27;folder&#x27;: &#x27;C:\\\\Users\\\\elisha.bere\\\\Downloads\\\\my_python_files\\\\PIZZZA PROJECT\\\\web2py_win\\\\web2py&#x27;, &#x27;config&#x27;: &#x27;&#x27;, &#x27;minthreads&#x27;: None, &#x27;shell&#x27;: None, &#x27;run&#x27;: &#x27;&#x27;, &#x27;log_filename&#x27;: &#x27;httpserver.log&#x27;, &#x27;profiler_dir&#x27;: None, &#x27;args&#x27;: [&#x27;&#x27;], &#x27;socket_timeout&#x27;: 5, &#x27;ssl_ca_certificate&#x27;: None, &#x27;scheduler&#x27;: None, &#x27;interfaces&#x27;: None, &#x27;ssl_private_key&#x27;: &#x27;&#x27;, &#x27;gae&#x27;: None, &#x27;password&#x27;: &#x27;******&#x27;, &#x27;request_queue_size&#x27;: 5, &#x27;ssl_certificate&#x27;: &#x27;&#x27;, &#x27;cronjob&#x27;: False, &#x27;numthreads&#x27;: None, &#x27;quiet&#x27;: False, &#x27;import_models&#x27;: False, &#x27;timeout&#x27;: 10, &#x27;plain&#x27;: False, &#x27;nobanner&#x27;: False}&gt;</div></td></tr><tr><td style="font-weight:bold;vertical-align:top;">content_type</td><td style="vertical-align:top;">:</td><td><div>application/x-www-form-urlencoded; charset=UTF-8</div></td></tr><tr><td style="font-weight:bold;vertical-align:top;">db_sessions</td><td style="vertical-align:top;">:</td><td><div>set([])</div></td></tr><tr><td style="font-weight:bold;vertical-align:top;">debugging</td><td style="vertical-align:top;">:</td><td><div>True</div></td></tr><tr><td style="font-weight:bold;vertical-align:top;">gluon_parent</td><td style="vertical-align:top;">:</td><td><div>C:\\Users\\elisha.bere\\Downloads\\my_python_files\\PIZZZA PROJECT\\web2py_win\\web2py</div></td></tr><tr><td style="font-weight:bold;vertical-align:top;">http_accept</td><td style="vertical-align:top;">:</td><td><div>*/*</div></td></tr><tr><td style="font-weight:bold;vertical-align:top;">http_accept_encoding</td><td style="vertical-align:top;">:</td><td><div>gzip, deflate</div></td></tr><tr><td style="font-weight:bold;vertical-align:top;">http_accept_language</td><td style="vertical-align:top;">:</td><td><div>en-US,en;q=0.5</div></td></tr><tr><td style="font-weight:bold;vertical-align:top;">http_connection</td><td style="vertical-align:top;">:</td><td><div>keep-alive</div></td></tr><tr><td style="font-weight:bold;vertical-align:top;">http_content_type</td><td style="vertical-align:top;">:</td><td><div>application/x-www-form-urlencoded; charset=UTF-8</div></td></tr><tr><td style="font-weight:bold;vertical-align:top;">http_cookie</td><td style="vertical-align:top;">:</td><td><div>__lnkrntdmcvrd=-1; session_id_welcome=127.0.0.1-888e0156-e9d6-4d9a-af6f-dc7e9cc9a13c; session_id_admin=127.0.0.1-9385eae7-8fa3-4627-b9d9-9526b0807a9e; session_id_tafari=127.0.0.1-39ff665a-7562-454d-a27f-4760199be9ca; session_id_project=127.0.0.1-ef192341-78ed-4f15-a1a8-0e4e02b36b7a</div></td></tr><tr><td style="font-weight:bold;vertical-align:top;">http_host</td><td style="vertical-align:top;">:</td><td><div>127.0.0.1:8000</div></td></tr><tr><td style="font-weight:bold;vertical-align:top;">http_referer</td><td style="vertical-align:top;">:</td><td><div>http://127.0.0.1:8000/admin/default/edit/project/controllers/products.py?id=controllers__products__py</div></td></tr><tr><td style="font-weight:bold;vertical-align:top;">http_user_agent</td><td style="vertical-align:top;">:</td><td><div>Mozilla/5.0 (Windows NT 6.1; Win64; x64; rv:60.0) Gecko/20100101 Firefox/60.0</div></td></tr><tr><td style="font-weight:bold;vertical-align:top;">http_web2py_component_element</td><td style="vertical-align:top;">:</td><td><div>c709083715013</div></td></tr><tr><td style="font-weight:bold;vertical-align:top;">http_web2py_component_location</td><td style="vertical-align:top;">:</td><td><div>http://127.0.0.1:8000/admin/default/edit/project/controllers/products.py?id=controllers__products__py</div></td></tr><tr><td style="font-weight:bold;vertical-align:top;">http_x_requested_with</td><td style="vertical-align:top;">:</td><td><div>XMLHttpRequest</div></td></tr><tr><td style="font-weight:bold;vertical-align:top;">is_jython</td><td style="vertical-align:top;">:</td><td><div>False</div></td></tr><tr><td style="font-weight:bold;vertical-align:top;">is_py2</td><td style="vertical-align:top;">:</td><td><div>True</div></td></tr><tr><td style="font-weight:bold;vertical-align:top;">is_pypy</td><td style="vertical-align:top;">:</td><td><div>False</div></td></tr><tr><td style="font-weight:bold;vertical-align:top;">is_source</td><td style="vertical-align:top;">:</td><td><div>False</div></td></tr><tr><td style="font-weight:bold;vertical-align:top;">local_hosts</td><td style="vertical-align:top;">:</td><td><div><table><tr><td><div>fe80::1499:f71b:5252:d9a%11</div></td></tr><tr><td><div>BRH-D-70QS2.rtg.co.zw</div></td></tr><tr><td><div>::ffff:127.0.0.1</div></td></tr><tr><td><div>::1</div></td></tr><tr><td><div>192.168.2.128</div></td></tr><tr><td><div>BRH-D-70QS2</div></td></tr><tr><td><div>127.0.0.1</div></td></tr></table></div></td></tr><tr><td style="font-weight:bold;vertical-align:top;">path_info</td><td style="vertical-align:top;">:</td><td><div>/project/appadmin/hooks</div></td></tr><tr><td style="font-weight:bold;vertical-align:top;">query_string</td><td style="vertical-align:top;">:</td><td><div></div></td></tr><tr><td style="font-weight:bold;vertical-align:top;">remote_addr</td><td style="vertical-align:top;">:</td><td><div>127.0.0.1</div></td></tr><tr><td style="font-weight:bold;vertical-align:top;">remote_port</td><td style="vertical-align:top;">:</td><td><div>58455</div></td></tr><tr><td style="font-weight:bold;vertical-align:top;">request_method</td><td style="vertical-align:top;">:</td><td><div>GET</div></td></tr><tr><td style="font-weight:bold;vertical-align:top;">request_uri</td><td style="vertical-align:top;">:</td><td><div>/project/appadmin/hooks</div></td></tr><tr><td style="font-weight:bold;vertical-align:top;">script_name</td><td style="vertical-align:top;">:</td><td><div></div></td></tr><tr><td style="font-weight:bold;vertical-align:top;">server_name</td><td style="vertical-align:top;">:</td><td><div>BRH-D-70QS2</div></td></tr><tr><td style="font-weight:bold;vertical-align:top;">server_port</td><td style="vertical-align:top;">:</td><td><div>8000</div></td></tr><tr><td style="font-weight:bold;vertical-align:top;">server_protocol</td><td style="vertical-align:top;">:</td><td><div>HTTP/1.1</div></td></tr><tr><td style="font-weight:bold;vertical-align:top;">server_software</td><td style="vertical-align:top;">:</td><td><div>Rocket 1.2.6</div></td></tr><tr><td style="font-weight:bold;vertical-align:top;">web2py_path</td><td style="vertical-align:top;">:</td><td><div>C:\\Users\\elisha.bere\\Downloads\\my_python_files\\PIZZZA PROJECT\\web2py_win\\web2py</div></td></tr><tr><td style="font-weight:bold;vertical-align:top;">web2py_version</td><td style="vertical-align:top;">:</td><td><div>2.16.1-stable+timestamp.2017.11.14.05.54.25</div></td></tr><tr><td style="font-weight:bold;vertical-align:top;">wsgi.errors</td><td style="vertical-align:top;">:</td><td><div>&lt;open file &#x27;&lt;stderr&gt;&#x27;, mode &#x27;w&#x27; at 0x01E1D0D0&gt;</div></td></tr><tr><td style="font-weight:bold;vertical-align:top;">wsgi.file_wrapper</td><td style="vertical-align:top;">:</td><td><div>&lt;class wsgiref.util.FileWrapper at 0x03451960&gt;</div></td></tr><tr><td style="font-weight:bold;vertical-align:top;">wsgi.input</td><td style="vertical-align:top;">:</td><td><div>&lt;socket._fileobject object at 0x04B77670&gt;</div></td></tr><tr><td style="font-weight:bold;vertical-align:top;">wsgi.multiprocess</td><td style="vertical-align:top;">:</td><td><div>False</div></td></tr><tr><td style="font-weight:bold;vertical-align:top;">wsgi.multithread</td><td style="vertical-align:top;">:</td><td><div>True</div></td></tr><tr><td style="font-weight:bold;vertical-align:top;">wsgi.run_once</td><td style="vertical-align:top;">:</td><td><div>False</div></td></tr><tr><td style="font-weight:bold;vertical-align:top;">wsgi.url_scheme</td><td style="vertical-align:top;">:</td><td><div>http</div></td></tr><tr><td style="font-weight:bold;vertical-align:top;">wsgi.version</td><td style="vertical-align:top;">:</td><td><div><table><tr><td><div>1</div></td></tr><tr><td><div>0</div></td></tr></table></div></td></tr><tr><td style="font-weight:bold;vertical-align:top;">wsgi_errors</td><td style="vertical-align:top;">:</td><td><div>&lt;open file &#x27;&lt;stderr&gt;&#x27;, mode &#x27;w&#x27; at 0x01E1D0D0&gt;</div></td></tr><tr><td style="font-weight:bold;vertical-align:top;">wsgi_file_wrapper</td><td style="vertical-align:top;">:</td><td><div>&lt;class wsgiref.util.FileWrapper at 0x03451960&gt;</div></td></tr><tr><td style="font-weight:bold;vertical-align:top;">wsgi_input</td><td style="vertical-align:top;">:</td><td><div>&lt;socket._fileobject object at 0x04B77670&gt;</div></td></tr><tr><td style="font-weight:bold;vertical-align:top;">wsgi_multiprocess</td><td style="vertical-align:top;">:</td><td><div>False</div></td></tr><tr><td style="font-weight:bold;vertical-align:top;">wsgi_multithread</td><td style="vertical-align:top;">:</td><td><div>True</div></td></tr><tr><td style="font-weight:bold;vertical-align:top;">wsgi_run_once</td><td style="vertical-align:top;">:</td><td><div>False</div></td></tr><tr><td style="font-weight:bold;vertical-align:top;">wsgi_url_scheme</td><td style="vertical-align:top;">:</td><td><div>http</div></td></tr><tr><td style="font-weight:bold;vertical-align:top;">wsgi_version</td><td style="vertical-align:top;">:</td><td><div><table><tr><td><div>1</div></td></tr><tr><td><div>0</div></td></tr></table></div></td></tr></table></div></td></tr><tr><td style="font-weight:bold;vertical-align:top;">extension</td><td style="vertical-align:top;">:</td><td><div>html</div></td></tr><tr><td style="font-weight:bold;vertical-align:top;">folder</td><td style="vertical-align:top;">:</td><td><div>C:\\Users\\elisha.bere\\Downloads\\my_python_files\\PIZZZA PROJECT\\web2py_win\\web2py\\applications\\project\\</div></td></tr><tr><td style="font-weight:bold;vertical-align:top;">function</td><td style="vertical-align:top;">:</td><td><div>hooks</div></td></tr><tr><td style="font-weight:bold;vertical-align:top;">global_settings</td><td style="vertical-align:top;">:</td><td><div><table><tr><td style="font-weight:bold;vertical-align:top;">app_folders</td><td style="vertical-align:top;">:</td><td><div>set([&#x27;C:\\\\Users\\\\elisha.bere\\\\Downloads\\\\my_python_files\\\\PIZZZA PROJECT\\\\web2py_win\\\\web2py\\\\applications\\\\admin\\\\&#x27;, &#x27;C:\\\\Users\\\\elisha.bere\\\\Downloads\\\\my_python_files\\\\PIZZZA PROJECT\\\\web2py_win\\\\web2py\\\\applications\\\\tafari\\\\&#x27;, &#x27;C:\\\\Users\\\\elisha.bere\\\\Downloads\\\\my_python_files\\\\PIZZZA PROJECT\\\\web2py_win\\\\web2py\\\\applications\\\\project\\\\&#x27;, &#x27;C:\\\\Users\\\\elisha.bere\\\\Downloads\\\\my_python_files\\\\PIZZZA PROJECT\\\\web2py_win\\\\web2py\\\\applications\\\\welcome\\\\&#x27;, &#x27;C:\\\\Users\\\\elisha.bere\\\\Downloads\\\\my_python_files\\\\PIZZZA PROJECT\\\\web2py_win\\\\web2py\\\\applications\\\\Tafari\\\\&#x27;])</div></td></tr><tr><td style="font-weight:bold;vertical-align:top;">applications_parent</td><td style="vertical-align:top;">:</td><td><div>C:\\Users\\elisha.bere\\Downloads\\my_python_files\\PIZZZA PROJECT\\web2py_win\\web2py</div></td></tr><tr><td style="font-weight:bold;vertical-align:top;">cmd_args</td><td style="vertical-align:top;">:</td><td><div><table></table></div></td></tr><tr><td style="font-weight:bold;vertical-align:top;">cmd_options</td><td style="vertical-align:top;">:</td><td><div>&lt;Values at 0x338cd50: {&#x27;verbose&#x27;: False, &#x27;ip&#x27;: &#x27;127.0.0.1&#x27;, &#x27;debuglevel&#x27;: 30, &#x27;with_scheduler&#x27;: False, &#x27;shutdown_timeout&#x27;: 5, &#x27;taskbar&#x27;: False, &#x27;with_coverage&#x27;: False, &#x27;pid_filename&#x27;: &#x27;httpserver.pid&#x27;, &#x27;maxthreads&#x27;: None, &#x27;softcron&#x27;: False, &#x27;server_name&#x27;: &#x27;BRH-D-70QS2&#x27;, &#x27;bpython&#x27;: False, &#x27;nogui&#x27;: False, &#x27;port&#x27;: 8000, &#x27;print_errors&#x27;: False, &#x27;extcron&#x27;: False, &#x27;runcron&#x27;: False, &#x27;run_system_tests&#x27;: False, &#x27;test&#x27;: None, &#x27;folder&#x27;: &#x27;C:\\\\Users\\\\elisha.bere\\\\Downloads\\\\my_python_files\\\\PIZZZA PROJECT\\\\web2py_win\\\\web2py&#x27;, &#x27;config&#x27;: &#x27;&#x27;, &#x27;minthreads&#x27;: None, &#x27;shell&#x27;: None, &#x27;run&#x27;: &#x27;&#x27;, &#x27;log_filename&#x27;: &#x27;httpserver.log&#x27;, &#x27;profiler_dir&#x27;: None, &#x27;args&#x27;: [&#x27;&#x27;], &#x27;socket_timeout&#x27;: 5, &#x27;ssl_ca_certificate&#x27;: None, &#x27;scheduler&#x27;: None, &#x27;interfaces&#x27;: None, &#x27;ssl_private_key&#x27;: &#x27;&#x27;, &#x27;gae&#x27;: None, &#x27;password&#x27;: &#x27;******&#x27;, &#x27;request_queue_size&#x27;: 5, &#x27;ssl_certificate&#x27;: &#x27;&#x27;, &#x27;cronjob&#x27;: False, &#x27;numthreads&#x27;: None, &#x27;quiet&#x27;: False, &#x27;import_models&#x27;: False, &#x27;timeout&#x27;: 10, &#x27;plain&#x27;: False, &#x27;nobanner&#x27;: False}&gt;</div></td></tr><tr><td style="font-weight:bold;vertical-align:top;">db_sessions</td><td style="vertical-align:top;">:</td><td><div>set([])</div></td></tr><tr><td style="font-weight:bold;vertical-align:top;">debugging</td><td style="vertical-align:top;">:</td><td><div>True</div></td></tr><tr><td style="font-weight:bold;vertical-align:top;">gluon_parent</td><td style="vertical-align:top;">:</td><td><div>C:\\Users\\elisha.bere\\Downloads\\my_python_files\\PIZZZA PROJECT\\web2py_win\\web2py</div></td></tr><tr><td style="font-weight:bold;vertical-align:top;">is_jython</td><td style="vertical-align:top;">:</td><td><div>False</div></td></tr><tr><td style="font-weight:bold;vertical-align:top;">is_py2</td><td style="vertical-align:top;">:</td><td><div>True</div></td></tr><tr><td style="font-weight:bold;vertical-align:top;">is_pypy</td><td style="vertical-align:top;">:</td><td><div>False</div></td></tr><tr><td style="font-weight:bold;vertical-align:top;">is_source</td><td style="vertical-align:top;">:</td><td><div>False</div></td></tr><tr><td style="font-weight:bold;vertical-align:top;">local_hosts</td><td style="vertical-align:top;">:</td><td><div><table><tr><td><div>fe80::1499:f71b:5252:d9a%11</div></td></tr><tr><td><div>BRH-D-70QS2.rtg.co.zw</div></td></tr><tr><td><div>::ffff:127.0.0.1</div></td></tr><tr><td><div>::1</div></td></tr><tr><td><div>192.168.2.128</div></td></tr><tr><td><div>BRH-D-70QS2</div></td></tr><tr><td><div>127.0.0.1</div></td></tr></table></div></td></tr><tr><td style="font-weight:bold;vertical-align:top;">web2py_version</td><td style="vertical-align:top;">:</td><td><div>2.16.1-stable+timestamp.2017.11.14.05.54.25</div></td></tr></table></div></td></tr><tr><td style="font-weight:bold;vertical-align:top;">is_https</td><td style="vertical-align:top;">:</td><td><div>False</div></td></tr><tr><td style="font-weight:bold;vertical-align:top;">is_local</td><td style="vertical-align:top;">:</td><td><div>True</div></td></tr><tr><td style="font-weight:bold;vertical-align:top;">is_restful</td><td style="vertical-align:top;">:</td><td><div>False</div></td></tr><tr><td style="font-weight:bold;vertical-align:top;">is_scheduler</td><td style="vertical-align:top;">:</td><td><div>False</div></td></tr><tr><td style="font-weight:bold;vertical-align:top;">is_shell</td><td style="vertical-align:top;">:</td><td><div>False</div></td></tr><tr><td style="font-weight:bold;vertical-align:top;">now</td><td style="vertical-align:top;">:</td><td><div>datetime.datetime(2018, 6, 5, 13, 22, 29, 425000)</div></td></tr><tr><td style="font-weight:bold;vertical-align:top;">raw_args</td><td style="vertical-align:top;">:</td><td><div></div></td></tr><tr><td style="font-weight:bold;vertical-align:top;">raw_extension</td><td style="vertical-align:top;">:</td><td><div>None</div></td></tr><tr><td style="font-weight:bold;vertical-align:top;">url</td><td style="vertical-align:top;">:</td><td><div>/project/appadmin/hooks</div></td></tr><tr><td style="font-weight:bold;vertical-align:top;">utcnow</td><td style="vertical-align:top;">:</td><td><div>datetime.datetime(2018, 6, 5, 11, 22, 29, 425000)</div></td></tr><tr><td style="font-weight:bold;vertical-align:top;">wsgi</td><td style="vertical-align:top;">:</td><td><div>&lt;gluon.main.LazyWSGI object at 0x08586E10&gt;</div></td></tr></table></div>'
tRp60
sS'frames'
p61
(lp62
(dp63
S'file'
p64
S'C:\\Users\\elisha.bere\\Downloads\\my_python_files\\PIZZZA PROJECT\\web2py_win\\web2py\\gluon\\restricted.py'
p65
sS'dump'
p66
(dp67
S'environment'
p68
S"{'A': <class 'gluon.html.A'>, 'ANY_OF': <class 'gluon.validators.ANY_OF'>, 'ASSIGNJS': <function ASSIGNJS>, 'AppConfig': <function AppConfig>, 'Auth': <class 'gluon.tools.Auth'>, 'B': <class 'gluon.html.B'>, 'BEAUTIFY': <class 'gluon.html.BEAUTIFY'>, 'BODY': <class 'gluon.html.BODY'>, 'BR': <class 'gluon.html.BR'>, 'BUTTON': <class 'gluon.html.BUTTON'>, ...}"
p69
sS'ccode'
p70
S'<code object <module> at 04A825C0, file "C:\\User...eb2py\\applications\\project\\models\\db.py", line 7>'
p71
ssS'lnum'
p72
I219
sS'lines'
p73
(dp74
I214
S'    if environment is None:'
p75
sI215
S'        environment = {}'
p76
sI216
S"    environment['__file__'] = layer"
p77
sI217
S"    environment['__name__'] = '__restricted__'"
p78
sI218
S'    try:'
p79
sI219
S'        exec(ccode, environment)'
p80
sI220
S'    except HTTP:'
p81
sI221
S'        raise'
p82
sI222
S'    except RestrictedError:'
p83
sI223
S'        # do not encapsulate (obfuscate) the original RestrictedError'
p84
ssS'call'
p85
S'(ccode=<code object <module> at 04A825C0, file "C:\\User...eb2py\\applications\\project\\models\\db.py", line 7>, environment={\'A\': <class \'gluon.html.A\'>, \'ANY_OF\': <class \'gluon.validators.ANY_OF\'>, \'ASSIGNJS\': <function ASSIGNJS>, \'AppConfig\': <function AppConfig>, \'Auth\': <class \'gluon.tools.Auth\'>, \'B\': <class \'gluon.html.B\'>, \'BEAUTIFY\': <class \'gluon.html.BEAUTIFY\'>, \'BODY\': <class \'gluon.html.BODY\'>, \'BR\': <class \'gluon.html.BR\'>, \'BUTTON\': <class \'gluon.html.BUTTON\'>, ...}, layer=r\'C:\\Users\\elisha.bere\\Downloads\\my_python_files\\P...b2py_win\\web2py\\applications\\project\\models\\db.py\', scode=<code object <module> at 04A825C0, file "C:\\User...eb2py\\applications\\project\\models\\db.py", line 7>)'
p86
sS'func'
p87
S'restricted'
p88
sa(dp89
g64
S'C:\\Users\\elisha.bere\\Downloads\\my_python_files\\PIZZZA PROJECT\\web2py_win\\web2py\\applications\\project\\models\\db.py'
p90
sg66
(dp91
S'Field'
p92
S"<class 'pydal.objects.Field'>"
p93
sS'db.products'
p94
S'<Table products (id, product_name, current_price...reated_on, created_by, modified_on, modified_by)>'
p95
sS'db'
p96
S'<DAL uri="sqlite://storage.sqlite">'
p97
ssg72
I170
sg73
(dp98
I162
S'    auth.signature,'
p99
sI163
S'    )'
p100
sI164
S''
sI165
S"db.define_table('online_orders',"
p101
sI166
S"    Field('cust_id',db.auth_user),"
p102
sI167
S"    Field('prod_id',db.products),"
p103
sI168
S"    Field('order_date',type='date'),"
p104
sI169
S"    Field('total_price','float'),"
p105
sI170
S"    Field('description','string',db.products)                      #Field('shipping_add',type='string',required=True)"
p106
sI171
S'    )'
p107
ssg85
S'()'
p108
sg87
S'<module>'
p109
sa(dp110
g64
S'C:\\Users\\elisha.bere\\Downloads\\my_python_files\\PIZZZA PROJECT\\web2py_win\\web2py\\gluon\\packages\\dal\\pydal\\base.py'
p111
sg66
(dp112
S'fields'
p113
S'(<pydal.objects.Field object>, <pydal.objects.Field object>, <pydal.objects.Field object>, <pydal.objects.Field object>, <pydal.objects.Field object>)'
p114
sS'self'
p115
S'<DAL uri="sqlite://storage.sqlite">'
p116
sS'args'
p117
g19
sS'tablename'
p118
S"'online_orders'"
p119
sS'table'
p120
S'undefined'
p121
sS'self.lazy_define_table'
p122
S'<bound method DAL.lazy_define_table of <DAL uri="sqlite://storage.sqlite">>'
p123
ssg72
I586
sg73
(dp124
I581
S'                                  (tablename, invalid_args))'
p125
sI582
S'        if self._lazy_tables and tablename not in self._LAZY_TABLES:'
p126
sI583
S'            self._LAZY_TABLES[tablename] = (tablename, fields, args)'
p127
sI584
S'            table = None'
p128
sI585
S'        else:'
p129
sI586
S'            table = self.lazy_define_table(tablename, *fields, **args)'
p130
sI587
S'        if tablename not in self.tables:'
p131
sI588
S'            self.tables.append(tablename)'
p132
sI589
S'        return table'
p133
sI590
S''
ssg85
S'(self=<DAL uri="sqlite://storage.sqlite">, tablename=\'online_orders\', *fields=(<pydal.objects.Field object>, <pydal.objects.Field object>, <pydal.objects.Field object>, <pydal.objects.Field object>, <pydal.objects.Field object>), **args={})'
p134
sg87
S'define_table'
p135
sa(dp136
g64
S'C:\\Users\\elisha.bere\\Downloads\\my_python_files\\PIZZZA PROJECT\\web2py_win\\web2py\\gluon\\packages\\dal\\pydal\\base.py'
p137
sg66
(dp138
S'polymodel'
p139
S'None'
p140
ssg72
I620
sg73
(dp141
I615
S'            try:'
p142
sI616
S'                GLOBAL_LOCKER.acquire()'
p143
sI617
S'                self._adapter.create_table('
p144
sI618
S'                    table, migrate=migrate,'
p145
sI619
S'                    fake_migrate=fake_migrate,'
p146
sI620
S'                    polymodel=polymodel)'
p147
sI621
S'            finally:'
p148
sI622
S'                GLOBAL_LOCKER.release()'
p149
sI623
S'        else:'
p150
sI624
S'            table._dbt = None'
p151
ssg85
S'(self=<DAL uri="sqlite://storage.sqlite">, tablename=\'online_orders\', *fields=(<pydal.objects.Field object>, <pydal.objects.Field object>, <pydal.objects.Field object>, <pydal.objects.Field object>, <pydal.objects.Field object>), **args={})'
p152
sg87
S'lazy_define_table'
p153
sa(dp154
g64
S'C:\\Users\\elisha.bere\\Downloads\\my_python_files\\PIZZZA PROJECT\\web2py_win\\web2py\\gluon\\packages\\dal\\pydal\\adapters\\base.py'
p155
sg66
(dp156
S'self'
p157
S'<pydal.adapters.sqlite.SQLite object>'
p158
sS'args'
p159
S'(<Table online_orders (id, cust_id, prod_id, order_date, total_price, description)>,)'
p160
sS'self.migrator'
p161
S'<pydal.migrator.Migrator object>'
p162
sS'self.migrator.create_table'
p163
S'<bound method Migrator.create_table of <pydal.migrator.Migrator object>>'
p164
sS'kwargs'
p165
S"{'fake_migrate': False, 'migrate': True, 'polymodel': None}"
p166
ssg72
I797
sg73
(dp167
I800
S'        super(SQLAdapter, self)._drop_table_cleanup(table)'
p168
sI801
S'        if table._dbt:'
p169
sI792
S''
sI793
S'    def bulk_insert(self, table, items):'
p170
sI794
S'        return [self.insert(table, item) for item in items]'
p171
sI795
S''
sI796
S'    def create_table(self, *args, **kwargs):'
p172
sI797
S'        return self.migrator.create_table(*args, **kwargs)'
p173
sI798
S''
sI799
S'    def _drop_table_cleanup(self, table):'
p174
ssg85
S"(self=<pydal.adapters.sqlite.SQLite object>, *args=(<Table online_orders (id, cust_id, prod_id, order_date, total_price, description)>,), **kwargs={'fake_migrate': False, 'migrate': True, 'polymodel': None})"
p175
sg87
S'create_table'
p176
sa(dp177
g64
S'C:\\Users\\elisha.bere\\Downloads\\my_python_files\\PIZZZA PROJECT\\web2py_win\\web2py\\gluon\\packages\\dal\\pydal\\migrator.py'
p178
sg66
(dp179
S'table'
p180
S'<Table online_orders (id, cust_id, prod_id, order_date, total_price, description)>'
p181
sS'table._dbt'
p182
S"r'C:\\Users\\elisha.bere\\Downloads\\my_python_files\\P...669d15150d7109e5f7ab36744a5b7_online_orders.table'"
p183
sS'builtinRuntimeError'
p184
S"<type 'exceptions.RuntimeError'>"
p185
ssg72
I298
sg73
(dp186
I293
S"            tfile = self.file_open(table._dbt, 'rb')"
p187
sI294
S'            try:'
p188
sI295
S'                sql_fields_old = pickle.load(tfile)'
p189
sI296
S'            except EOFError:'
p190
sI297
S'                self.file_close(tfile)'
p191
sI298
S"                raise RuntimeError('File %s appears corrupted' % table._dbt)"
p192
sI299
S'            self.file_close(tfile)'
p193
sI300
S'            # add missing rnames'
p194
sI301
S'            for key, item in sql_fields_old.items():'
p195
sI302
S'                tmp = sql_fields.get(key)'
p196
ssg85
S'(self=<pydal.migrator.Migrator object>, table=<Table online_orders (id, cust_id, prod_id, order_date, total_price, description)>, migrate=True, fake_migrate=False, polymodel=None)'
p197
sg87
g176
sasS'pyver'
p198
S'Python 2.7.9: C:\\Users\\elisha.bere\\Downloads\\my_python_files\\PIZZZA PROJECT\\web2py_win\\web2py\\web2py.exe (prefix: )'
p199
sS'session'
p200
g59
(S's\n\n\x00\x00<div><table><tr><td style="font-weight:bold;vertical-align:top;">auth</td><td style="vertical-align:top;">:</td><td><div><table><tr><td style="font-weight:bold;vertical-align:top;">expiration</td><td style="vertical-align:top;">:</td><td><div>2592000</div></td></tr><tr><td style="font-weight:bold;vertical-align:top;">hmac_key</td><td style="vertical-align:top;">:</td><td><div>5a0aa6be-981a-41ff-9b5b-16d009e4727c</div></td></tr><tr><td style="font-weight:bold;vertical-align:top;">last_visit</td><td style="vertical-align:top;">:</td><td><div>datetime.datetime(2018, 6, 5, 12, 14, 51, 848000)</div></td></tr><tr><td style="font-weight:bold;vertical-align:top;">remember_me</td><td style="vertical-align:top;">:</td><td><div>True</div></td></tr><tr><td style="font-weight:bold;vertical-align:top;">user</td><td style="vertical-align:top;">:</td><td><div><table><tr><td style="font-weight:bold;vertical-align:top;">email</td><td style="vertical-align:top;">:</td><td><div>elishabe5@gmail.com</div></td></tr><tr><td style="font-weight:bold;vertical-align:top;">first_name</td><td style="vertical-align:top;">:</td><td><div>Elisha</div></td></tr><tr><td style="font-weight:bold;vertical-align:top;">id</td><td style="vertical-align:top;">:</td><td><div>2L</div></td></tr><tr><td style="font-weight:bold;vertical-align:top;">last_name</td><td style="vertical-align:top;">:</td><td><div>Bere</div></td></tr><tr><td style="font-weight:bold;vertical-align:top;">registration_id</td><td style="vertical-align:top;">:</td><td><div></div></td></tr><tr><td style="font-weight:bold;vertical-align:top;">registration_key</td><td style="vertical-align:top;">:</td><td><div></div></td></tr><tr><td style="font-weight:bold;vertical-align:top;">reset_password_key</td><td style="vertical-align:top;">:</td><td><div></div></td></tr></table></div></td></tr><tr><td style="font-weight:bold;vertical-align:top;">user_groups</td><td style="vertical-align:top;">:</td><td><div><table><tr><td style="font-weight:bold;vertical-align:top;">2</td><td style="vertical-align:top;">:</td><td><div>admin</div></td></tr></table></div></td></tr></table></div></td></tr><tr><td style="font-weight:bold;vertical-align:top;">flash</td><td style="vertical-align:top;">:</td><td><div>None</div></td></tr><tr><td style="font-weight:bold;vertical-align:top;">last_orderby</td><td style="vertical-align:top;">:</td><td><div>None</div></td></tr><tr><td style="font-weight:bold;vertical-align:top;">last_query</td><td style="vertical-align:top;">:</td><td><div>db.auth_user.id&gt;0</div></td></tr></table></div>'
tRp201
sS'etype'
p202
S"<type 'exceptions.RuntimeError'>"
p203
sS'date'
p204
S'Tue Jun 05 13:22:29 2018'
p205
sS'response'
p206
g59
(S's;\x1b\x00\x00<div><table><tr><td style="font-weight:bold;vertical-align:top;">body</td><td style="vertical-align:top;">:</td><td><div>&lt;cStringIO.StringO object at 0x08586BE0&gt;</div></td></tr><tr><td style="font-weight:bold;vertical-align:top;">cookies</td><td style="vertical-align:top;">:</td><td><div><table><tr><td style="font-weight:bold;vertical-align:top;">session_id_project</td><td style="vertical-align:top;">:</td><td><div>127.0.0.1-ef192341-78ed-4f15-a1a8-0e4e02b36b7a<table><tr><td style="font-weight:bold;vertical-align:top;">comment</td><td style="vertical-align:top;">:</td><td><div></div></td></tr><tr><td style="font-weight:bold;vertical-align:top;">domain</td><td style="vertical-align:top;">:</td><td><div></div></td></tr><tr><td style="font-weight:bold;vertical-align:top;">expires</td><td style="vertical-align:top;">:</td><td><div></div></td></tr><tr><td style="font-weight:bold;vertical-align:top;">httponly</td><td style="vertical-align:top;">:</td><td><div></div></td></tr><tr><td style="font-weight:bold;vertical-align:top;">max-age</td><td style="vertical-align:top;">:</td><td><div></div></td></tr><tr><td style="font-weight:bold;vertical-align:top;">path</td><td style="vertical-align:top;">:</td><td><div>/</div></td></tr><tr><td style="font-weight:bold;vertical-align:top;">secure</td><td style="vertical-align:top;">:</td><td><div></div></td></tr><tr><td style="font-weight:bold;vertical-align:top;">version</td><td style="vertical-align:top;">:</td><td><div></div></td></tr></table></div></td></tr></table></div></td></tr><tr><td style="font-weight:bold;vertical-align:top;">delimiters</td><td style="vertical-align:top;">:</td><td><div><table><tr><td><div>{{</div></td></tr><tr><td><div>}}</div></td></tr></table></div></td></tr><tr><td style="font-weight:bold;vertical-align:top;">files</td><td style="vertical-align:top;">:</td><td><div><table></table></div></td></tr><tr><td style="font-weight:bold;vertical-align:top;">flash</td><td style="vertical-align:top;">:</td><td><div></div></td></tr><tr><td style="font-weight:bold;vertical-align:top;">form_label_separator</td><td style="vertical-align:top;">:</td><td><div></div></td></tr><tr><td style="font-weight:bold;vertical-align:top;">formstyle</td><td style="vertical-align:top;">:</td><td><div>bootstrap4_inline</div></td></tr><tr><td style="font-weight:bold;vertical-align:top;">generic_patterns</td><td style="vertical-align:top;">:</td><td><div><table><tr><td><div>*</div></td></tr></table></div></td></tr><tr><td style="font-weight:bold;vertical-align:top;">google_analytics_id</td><td style="vertical-align:top;">:</td><td><div>None</div></td></tr><tr><td style="font-weight:bold;vertical-align:top;">headers</td><td style="vertical-align:top;">:</td><td><div><table><tr><td style="font-weight:bold;vertical-align:top;">X-Powered-By</td><td style="vertical-align:top;">:</td><td><div>web2py</div></td></tr></table></div></td></tr><tr><td style="font-weight:bold;vertical-align:top;">menu</td><td style="vertical-align:top;">:</td><td><div><table></table></div></td></tr><tr><td style="font-weight:bold;vertical-align:top;">meta</td><td style="vertical-align:top;">:</td><td><div><table><tr><td style="font-weight:bold;vertical-align:top;">author</td><td style="vertical-align:top;">:</td><td><div>Your Name &lt;you@example.com&gt;</div></td></tr><tr><td style="font-weight:bold;vertical-align:top;">description</td><td style="vertical-align:top;">:</td><td><div>a cool new app</div></td></tr><tr><td style="font-weight:bold;vertical-align:top;">generator</td><td style="vertical-align:top;">:</td><td><div>Web2py Web Framework</div></td></tr><tr><td style="font-weight:bold;vertical-align:top;">keywords</td><td style="vertical-align:top;">:</td><td><div><table><tr><td><div>web2py</div></td></tr><tr><td><div>python</div></td></tr><tr><td><div>framework</div></td></tr></table></div></td></tr></table></div></td></tr><tr><td style="font-weight:bold;vertical-align:top;">models_to_run</td><td style="vertical-align:top;">:</td><td><div><table><tr><td><div>^\\w+\\.py$</div></td></tr><tr><td><div>^appadmin/\\w+\\.py$</div></td></tr><tr><td><div>^appadmin/hooks/\\w+\\.py$</div></td></tr></table></div></td></tr><tr><td style="font-weight:bold;vertical-align:top;">postprocessing</td><td style="vertical-align:top;">:</td><td><div><table></table></div></td></tr><tr><td style="font-weight:bold;vertical-align:top;">session_client</td><td style="vertical-align:top;">:</td><td><div>127.0.0.1</div></td></tr><tr><td style="font-weight:bold;vertical-align:top;">session_cookie_compression_level</td><td style="vertical-align:top;">:</td><td><div>None</div></td></tr><tr><td style="font-weight:bold;vertical-align:top;">session_cookie_expires</td><td style="vertical-align:top;">:</td><td><div>2592000</div></td></tr><tr><td style="font-weight:bold;vertical-align:top;">session_data_name</td><td style="vertical-align:top;">:</td><td><div>session_data_project</div></td></tr><tr><td style="font-weight:bold;vertical-align:top;">session_file</td><td style="vertical-align:top;">:</td><td><div>&lt;open file &#x27;C:\\\\Users\\\\elisha.bere\\\\Downloads\\\\my_python_files\\\\PIZZZA PROJECT\\\\web2py_win\\\\web2py\\\\applications\\\\project\\\\sessions\\\\125\\\\195\\\\127.0.0.1-ef192341-78ed-4f15-a1a8-0e4e02b36b7a&#x27;, mode &#x27;rb+&#x27; at 0x086BF7B0&gt;</div></td></tr><tr><td style="font-weight:bold;vertical-align:top;">session_filename</td><td style="vertical-align:top;">:</td><td><div>C:\\Users\\elisha.bere\\Downloads\\my_python_files\\PIZZZA PROJECT\\web2py_win\\web2py\\applications\\project\\sessions\\127.0.0.1-ef192341-78ed-4f15-a1a8-0e4e02b36b7a</div></td></tr><tr><td style="font-weight:bold;vertical-align:top;">session_hash</td><td style="vertical-align:top;">:</td><td><div>5ecdb1ce8ebdbc6dd72b105fe338d3d2</div></td></tr><tr><td style="font-weight:bold;vertical-align:top;">session_id</td><td style="vertical-align:top;">:</td><td><div>127.0.0.1-ef192341-78ed-4f15-a1a8-0e4e02b36b7a</div></td></tr><tr><td style="font-weight:bold;vertical-align:top;">session_id_name</td><td style="vertical-align:top;">:</td><td><div>session_id_project</div></td></tr><tr><td style="font-weight:bold;vertical-align:top;">session_locked</td><td style="vertical-align:top;">:</td><td><div>True</div></td></tr><tr><td style="font-weight:bold;vertical-align:top;">session_masterapp</td><td style="vertical-align:top;">:</td><td><div>project</div></td></tr><tr><td style="font-weight:bold;vertical-align:top;">session_new</td><td style="vertical-align:top;">:</td><td><div>False</div></td></tr><tr><td style="font-weight:bold;vertical-align:top;">session_storage_type</td><td style="vertical-align:top;">:</td><td><div>file</div></td></tr><tr><td style="font-weight:bold;vertical-align:top;">status</td><td style="vertical-align:top;">:</td><td><div>200</div></td></tr><tr><td style="font-weight:bold;vertical-align:top;">view</td><td style="vertical-align:top;">:</td><td><div>appadmin/hooks.html</div></td></tr></table></div>'
tRp207
sS'locals'
p208
(dp209
S'rtablename'
p210
S"'products'"
p211
sS'referenced'
p212
S"'products'"
p213
sS'dbpath'
p214
S"r'C:\\Users\\elisha.bere\\Downloads\\my_python_files\\P...\\web2py_win\\web2py\\applications\\project\\databases'"
p215
sS'migrate'
p216
S'True'
p217
sS'constraint_name'
p218
S"'online_orders_prod_id__constraint'"
p219
sS'table'
p220
S'<Table online_orders (id, cust_id, prod_id, order_date, total_price, description)>'
p221
sS'query'
p222
S'\'CREATE TABLE "online_orders"(\\n    "id" INTEGER P...rice" DOUBLE,\\n    "description" CHAR(products)\\n);\''
p223
sS'real_referenced'
p224
S'\'"products"\''
p225
sS'postcreation_fields'
p226
S'[]'
p227
sS'field_type'
p228
S"'string'"
p229
sS'self'
p230
S'<pydal.migrator.Migrator object>'
p231
sS'type_name'
p232
S"'reference'"
p233
sS'tablename'
p234
S"'online_orders'"
p235
sS'field'
p236
S'<pydal.objects.Field object>'
p237
sS'ftype'
p238
S"'CHAR(products)'"
p239
sS'rtable'
p240
S'<Table products (id, product_name, current_price...reated_on, created_by, modified_on, modified_by)>'
p241
sS'id_fieldname'
p242
S'\'"id"\''
p243
sS'polymodel'
p244
S'None'
p245
sS'ftype_info'
p246
S'{\'constraint_name\': \'"online_orders_prod_id__constraint"\', \'field_name\': \'"prod_id"\', \'foreign_key\': \'"products" ("id")\', \'index_name\': \'"prod_id__idx"\', \'null\': \'\', \'on_delete_action\': \'CASCADE\', \'unique\': \'\'}'
p247
sS'rfieldname'
p248
S"'id'"
p249
sS'tfile'
p250
S'<pydal.contrib.portalocker.LockedFile object>'
p251
sS'db'
p252
S'<DAL uri="sqlite://storage.sqlite">'
p253
sS'fake_migrate'
p254
S'False'
p255
sS'sql_fields'
p256
S'{\'cust_id\': {\'length\': 512, \'notnull\': False, \'raw_rname\': \'cust_id\', \'rname\': \'"cust_id"\', \'sortable\': 2, \'sql\': \'INTEGER REFERENCES "auth_user" ("id") ON DELETE CASCADE  \', \'type\': \'reference auth_user\', \'unique\': False}, \'description\': {\'length\': <Table products (id, product_name, current_price...reated_on, created_by, modified_on, modified_by)>, \'notnull\': False, \'raw_rname\': \'description\', \'rname\': \'"description"\', \'sortable\': 6, \'sql\': \'CHAR(products)\', \'type\': \'string\', \'unique\': False}, \'id\': {\'length\': 512, \'notnull\': False, \'raw_rname\': \'id\', \'rname\': \'"id"\', \'sortable\': 1, \'sql\': \'INTEGER PRIMARY KEY AUTOINCREMENT\', \'type\': \'id\', \'unique\': False}, \'order_date\': {\'length\': 512, \'notnull\': False, \'raw_rname\': \'order_date\', \'rname\': \'"order_date"\', \'sortable\': 4, \'sql\': \'DATE\', \'type\': \'date\', \'unique\': False}, \'prod_id\': {\'length\': 512, \'notnull\': False, \'raw_rname\': \'prod_id\', \'rname\': \'"prod_id"\', \'sortable\': 3, \'sql\': \'INTEGER REFERENCES "products" ("id") ON DELETE CASCADE  \', \'type\': \'reference products\', \'unique\': False}, \'total_price\': {\'length\': 512, \'notnull\': False, \'raw_rname\': \'total_price\', \'rname\': \'"total_price"\', \'sortable\': 5, \'sql\': \'DOUBLE\', \'type\': \'float\', \'unique\': False}}'
p257
sS'field_name'
p258
S"'description'"
p259
sS'types'
p260
S"{'big-id': 'INTEGER PRIMARY KEY AUTOINCREMENT', 'big-reference': 'INTEGER REFERENCES %(foreign_key)s ON DELETE %(on_delete_action)s %(null)s %(unique)s', 'bigint': 'INTEGER', 'blob': 'BLOB', 'boolean': 'CHAR(1)', 'date': 'DATE', 'datetime': 'TIMESTAMP', 'decimal': 'DOUBLE', 'double': 'DOUBLE', 'float': 'DOUBLE', ...}"
p261
sS'sortable'
p262
S'6'
sS'sql_fields_aux'
p263
S'{\'cust_id\': {\'sql\': \'INTEGER REFERENCES "auth_user" ("id") ON DELETE CASCADE  \'}, \'description\': {\'sql\': \'CHAR(products)\'}, \'id\': {\'sql\': \'INTEGER PRIMARY KEY AUTOINCREMENT\'}, \'order_date\': {\'sql\': \'DATE\'}, \'prod_id\': {\'sql\': \'INTEGER REFERENCES "products" ("id") ON DELETE CASCADE  \'}, \'total_price\': {\'sql\': \'DOUBLE\'}}'
p264
sS'TFK'
p265
g19
sS'fields'
p266
S'\'"id" INTEGER PRIMARY KEY AUTOINCREMENT,\\n    "cus...l_price" DOUBLE,\\n    "description" CHAR(products)\''
p267
sS'uri'
p268
S"'sqlite://storage.sqlite'"
p269
sS'rfield'
p270
S'<pydal.objects.Field object>'
p271
sS'other'
p272
S"';'"
p273
sssS'traceback'
p274
S'Traceback (most recent call last):\n  File "C:\\Users\\elisha.bere\\Downloads\\my_python_files\\PIZZZA PROJECT\\web2py_win\\web2py\\gluon\\restricted.py", line 219, in restricted\n    exec(ccode, environment)\n  File "C:\\Users\\elisha.bere\\Downloads\\my_python_files\\PIZZZA PROJECT\\web2py_win\\web2py\\applications\\project\\models\\db.py", line 170, in <module>\n    Field(\'description\',\'string\',db.products)                      #Field(\'shipping_add\',type=\'string\',required=True)\n  File "C:\\Users\\elisha.bere\\Downloads\\my_python_files\\PIZZZA PROJECT\\web2py_win\\web2py\\gluon\\packages\\dal\\pydal\\base.py", line 586, in define_table\n    table = self.lazy_define_table(tablename, *fields, **args)\n  File "C:\\Users\\elisha.bere\\Downloads\\my_python_files\\PIZZZA PROJECT\\web2py_win\\web2py\\gluon\\packages\\dal\\pydal\\base.py", line 620, in lazy_define_table\n    polymodel=polymodel)\n  File "C:\\Users\\elisha.bere\\Downloads\\my_python_files\\PIZZZA PROJECT\\web2py_win\\web2py\\gluon\\packages\\dal\\pydal\\adapters\\base.py", line 797, in create_table\n    return self.migrator.create_table(*args, **kwargs)\n  File "C:\\Users\\elisha.bere\\Downloads\\my_python_files\\PIZZZA PROJECT\\web2py_win\\web2py\\gluon\\packages\\dal\\pydal\\migrator.py", line 298, in create_table\n    raise RuntimeError(\'File %s appears corrupted\' % table._dbt)\nRuntimeError: File C:\\Users\\elisha.bere\\Downloads\\my_python_files\\PIZZZA PROJECT\\web2py_win\\web2py\\applications\\project\\databases\\c8b669d15150d7109e5f7ab36744a5b7_online_orders.table appears corrupted\n'
p275
s.