(dp1
S'output'
p2
S'<class \'sqlite3.OperationalError\'> near "products": syntax error'
p3
sS'layer'
p4
S'C:\\Users\\elisha.bere\\Downloads\\my_python_files\\PIZZZA PROJECT\\web2py_win\\web2py\\applications\\project\\models\\db.py'
p5
sS'code'
p6
S'<code object <module> at 085193C8, file "C:\\Users\\elisha.bere\\Downloads\\my_python_files\\PIZZZA PROJECT\\web2py_win\\web2py\\applications\\project\\models\\db.py", line 7>'
p7
sS'snapshot'
p8
(dp9
S'exception'
p10
(dp11
S'__module__'
p12
S"'sqlite3'"
p13
sS'__getslice__'
p14
S"<method-wrapper '__getslice__' of OperationalError object>"
p15
sS'__str__'
p16
S"<method-wrapper '__str__' of OperationalError object>"
p17
sS'__reduce__'
p18
S'<built-in method __reduce__ of OperationalError object>'
p19
sS'__dict__'
p20
S'{}'
p21
sS'__sizeof__'
p22
S'<built-in method __sizeof__ of OperationalError object>'
p23
sS'__weakref__'
p24
S'None'
p25
sS'message'
p26
S'\'near "products": syntax error\''
p27
sS'__init__'
p28
S"<method-wrapper '__init__' of OperationalError object>"
p29
sS'__setattr__'
p30
S"<method-wrapper '__setattr__' of OperationalError object>"
p31
sS'__reduce_ex__'
p32
S'<built-in method __reduce_ex__ of OperationalError object>'
p33
sS'__new__'
p34
S'<built-in method __new__ of type object>'
p35
sS'__format__'
p36
S'<built-in method __format__ of OperationalError object>'
p37
sS'__class__'
p38
S"<class 'sqlite3.OperationalError'>"
p39
sS'__doc__'
p40
S'None'
p41
sS'__getitem__'
p42
S"<method-wrapper '__getitem__' of OperationalError object>"
p43
sS'__setstate__'
p44
S'<built-in method __setstate__ of OperationalError object>'
p45
sS'__getattribute__'
p46
S"<method-wrapper '__getattribute__' of OperationalError object>"
p47
sS'args'
p48
S'(\'near "products": syntax error\',)'
p49
sS'__subclasshook__'
p50
S'<built-in method __subclasshook__ of type object>'
p51
sS'__unicode__'
p52
S'<built-in method __unicode__ of OperationalError object>'
p53
sS'__delattr__'
p54
S"<method-wrapper '__delattr__' of OperationalError object>"
p55
sS'__repr__'
p56
S"<method-wrapper '__repr__' of OperationalError object>"
p57
sS'__hash__'
p58
S"<method-wrapper '__hash__' of OperationalError object>"
p59
ssS'evalue'
p60
S'near "products": syntax error'
p61
sS'request'
p62
cgluon.html
XML_unpickle
p63
(S's\x85m\x00\x00<div><table><tr><td style="font-weight:bold;vertical-align:top;">ajax</td><td style="vertical-align:top;">:</td><td><div>True</div></td></tr><tr><td style="font-weight:bold;vertical-align:top;">application</td><td style="vertical-align:top;">:</td><td><div>project</div></td></tr><tr><td style="font-weight:bold;vertical-align:top;">args</td><td style="vertical-align:top;">:</td><td><div><table></table></div></td></tr><tr><td style="font-weight:bold;vertical-align:top;">cid</td><td style="vertical-align:top;">:</td><td><div>c709083715013</div></td></tr><tr><td style="font-weight:bold;vertical-align:top;">client</td><td style="vertical-align:top;">:</td><td><div>127.0.0.1</div></td></tr><tr><td style="font-weight:bold;vertical-align:top;">controller</td><td style="vertical-align:top;">:</td><td><div>appadmin</div></td></tr><tr><td style="font-weight:bold;vertical-align:top;">cookies</td><td style="vertical-align:top;">:</td><td><div><table><tr><td style="font-weight:bold;vertical-align:top;">session_id_admin</td><td style="vertical-align:top;">:</td><td><div>127.0.0.1-9385eae7-8fa3-4627-b9d9-9526b0807a9e<table><tr><td style="font-weight:bold;vertical-align:top;">comment</td><td style="vertical-align:top;">:</td><td><div></div></td></tr><tr><td style="font-weight:bold;vertical-align:top;">domain</td><td style="vertical-align:top;">:</td><td><div></div></td></tr><tr><td style="font-weight:bold;vertical-align:top;">expires</td><td style="vertical-align:top;">:</td><td><div></div></td></tr><tr><td style="font-weight:bold;vertical-align:top;">httponly</td><td style="vertical-align:top;">:</td><td><div></div></td></tr><tr><td style="font-weight:bold;vertical-align:top;">max-age</td><td style="vertical-align:top;">:</td><td><div></div></td></tr><tr><td style="font-weight:bold;vertical-align:top;">path</td><td style="vertical-align:top;">:</td><td><div></div></td></tr><tr><td style="font-weight:bold;vertical-align:top;">secure</td><td style="vertical-align:top;">:</td><td><div></div></td></tr><tr><td style="font-weight:bold;vertical-align:top;">version</td><td style="vertical-align:top;">:</td><td><div></div></td></tr></table></div></td></tr><tr><td style="font-weight:bold;vertical-align:top;">session_id_project</td><td style="vertical-align:top;">:</td><td><div>127.0.0.1-ef192341-78ed-4f15-a1a8-0e4e02b36b7a<table><tr><td style="font-weight:bold;vertical-align:top;">comment</td><td style="vertical-align:top;">:</td><td><div></div></td></tr><tr><td style="font-weight:bold;vertical-align:top;">domain</td><td style="vertical-align:top;">:</td><td><div></div></td></tr><tr><td style="font-weight:bold;vertical-align:top;">expires</td><td style="vertical-align:top;">:</td><td><div></div></td></tr><tr><td style="font-weight:bold;vertical-align:top;">httponly</td><td style="vertical-align:top;">:</td><td><div></div></td></tr><tr><td style="font-weight:bold;vertical-align:top;">max-age</td><td style="vertical-align:top;">:</td><td><div></div></td></tr><tr><td style="font-weight:bold;vertical-align:top;">path</td><td style="vertical-align:top;">:</td><td><div></div></td></tr><tr><td style="font-weight:bold;vertical-align:top;">secure</td><td style="vertical-align:top;">:</td><td><div></div></td></tr><tr><td style="font-weight:bold;vertical-align:top;">version</td><td style="vertical-align:top;">:</td><td><div></div></td></tr></table></div></td></tr><tr><td style="font-weight:bold;vertical-align:top;">session_id_tafari</td><td style="vertical-align:top;">:</td><td><div>127.0.0.1-39ff665a-7562-454d-a27f-4760199be9ca<table><tr><td style="font-weight:bold;vertical-align:top;">comment</td><td style="vertical-align:top;">:</td><td><div></div></td></tr><tr><td style="font-weight:bold;vertical-align:top;">domain</td><td style="vertical-align:top;">:</td><td><div></div></td></tr><tr><td style="font-weight:bold;vertical-align:top;">expires</td><td style="vertical-align:top;">:</td><td><div></div></td></tr><tr><td style="font-weight:bold;vertical-align:top;">httponly</td><td style="vertical-align:top;">:</td><td><div></div></td></tr><tr><td style="font-weight:bold;vertical-align:top;">max-age</td><td style="vertical-align:top;">:</td><td><div></div></td></tr><tr><td style="font-weight:bold;vertical-align:top;">path</td><td style="vertical-align:top;">:</td><td><div></div></td></tr><tr><td style="font-weight:bold;vertical-align:top;">secure</td><td style="vertical-align:top;">:</td><td><div></div></td></tr><tr><td style="font-weight:bold;vertical-align:top;">version</td><td style="vertical-align:top;">:</td><td><div></div></td></tr></table></div></td></tr><tr><td style="font-weight:bold;vertical-align:top;">session_id_welcome</td><td style="vertical-align:top;">:</td><td><div>127.0.0.1-888e0156-e9d6-4d9a-af6f-dc7e9cc9a13c<table><tr><td style="font-weight:bold;vertical-align:top;">comment</td><td style="vertical-align:top;">:</td><td><div></div></td></tr><tr><td style="font-weight:bold;vertical-align:top;">domain</td><td style="vertical-align:top;">:</td><td><div></div></td></tr><tr><td style="font-weight:bold;vertical-align:top;">expires</td><td style="vertical-align:top;">:</td><td><div></div></td></tr><tr><td style="font-weight:bold;vertical-align:top;">httponly</td><td style="vertical-align:top;">:</td><td><div></div></td></tr><tr><td style="font-weight:bold;vertical-align:top;">max-age</td><td style="vertical-align:top;">:</td><td><div></div></td></tr><tr><td style="font-weight:bold;vertical-align:top;">path</td><td style="vertical-align:top;">:</td><td><div></div></td></tr><tr><td style="font-weight:bold;vertical-align:top;">secure</td><td style="vertical-align:top;">:</td><td><div></div></td></tr><tr><td style="font-weight:bold;vertical-align:top;">version</td><td style="vertical-align:top;">:</td><td><div></div></td></tr></table></div></td></tr></table></div></td></tr><tr><td style="font-weight:bold;vertical-align:top;">env</td><td style="vertical-align:top;">:</td><td><div><table><tr><td style="font-weight:bold;vertical-align:top;">CONTENT_TYPE</td><td style="vertical-align:top;">:</td><td><div>application/x-www-form-urlencoded; charset=UTF-8</div></td></tr><tr><td style="font-weight:bold;vertical-align:top;">HTTP_ACCEPT</td><td style="vertical-align:top;">:</td><td><div>*/*</div></td></tr><tr><td style="font-weight:bold;vertical-align:top;">HTTP_ACCEPT_ENCODING</td><td style="vertical-align:top;">:</td><td><div>gzip, deflate</div></td></tr><tr><td style="font-weight:bold;vertical-align:top;">HTTP_ACCEPT_LANGUAGE</td><td style="vertical-align:top;">:</td><td><div>en-US,en;q=0.5</div></td></tr><tr><td style="font-weight:bold;vertical-align:top;">HTTP_CONNECTION</td><td style="vertical-align:top;">:</td><td><div>keep-alive</div></td></tr><tr><td style="font-weight:bold;vertical-align:top;">HTTP_CONTENT_TYPE</td><td style="vertical-align:top;">:</td><td><div>application/x-www-form-urlencoded; charset=UTF-8</div></td></tr><tr><td style="font-weight:bold;vertical-align:top;">HTTP_COOKIE</td><td style="vertical-align:top;">:</td><td><div>__lnkrntdmcvrd=-1; session_id_welcome=127.0.0.1-888e0156-e9d6-4d9a-af6f-dc7e9cc9a13c; session_id_admin=127.0.0.1-9385eae7-8fa3-4627-b9d9-9526b0807a9e; session_id_tafari=127.0.0.1-39ff665a-7562-454d-a27f-4760199be9ca; session_id_project=127.0.0.1-ef192341-78ed-4f15-a1a8-0e4e02b36b7a</div></td></tr><tr><td style="font-weight:bold;vertical-align:top;">HTTP_HOST</td><td style="vertical-align:top;">:</td><td><div>127.0.0.1:8000</div></td></tr><tr><td style="font-weight:bold;vertical-align:top;">HTTP_REFERER</td><td style="vertical-align:top;">:</td><td><div>http://127.0.0.1:8000/admin/default/edit/project/controllers/products.py?id=controllers__products__py</div></td></tr><tr><td style="font-weight:bold;vertical-align:top;">HTTP_USER_AGENT</td><td style="vertical-align:top;">:</td><td><div>Mozilla/5.0 (Windows NT 6.1; Win64; x64; rv:60.0) Gecko/20100101 Firefox/60.0</div></td></tr><tr><td style="font-weight:bold;vertical-align:top;">HTTP_WEB2PY_COMPONENT_ELEMENT</td><td style="vertical-align:top;">:</td><td><div>c709083715013</div></td></tr><tr><td style="font-weight:bold;vertical-align:top;">HTTP_WEB2PY_COMPONENT_LOCATION</td><td style="vertical-align:top;">:</td><td><div>http://127.0.0.1:8000/admin/default/edit/project/controllers/products.py?id=controllers__products__py</div></td></tr><tr><td style="font-weight:bold;vertical-align:top;">HTTP_X_REQUESTED_WITH</td><td style="vertical-align:top;">:</td><td><div>XMLHttpRequest</div></td></tr><tr><td style="font-weight:bold;vertical-align:top;">PATH_INFO</td><td style="vertical-align:top;">:</td><td><div>/project/appadmin/hooks</div></td></tr><tr><td style="font-weight:bold;vertical-align:top;">QUERY_STRING</td><td style="vertical-align:top;">:</td><td><div></div></td></tr><tr><td style="font-weight:bold;vertical-align:top;">REMOTE_ADDR</td><td style="vertical-align:top;">:</td><td><div>127.0.0.1</div></td></tr><tr><td style="font-weight:bold;vertical-align:top;">REMOTE_PORT</td><td style="vertical-align:top;">:</td><td><div>59372</div></td></tr><tr><td style="font-weight:bold;vertical-align:top;">REQUEST_METHOD</td><td style="vertical-align:top;">:</td><td><div>GET</div></td></tr><tr><td style="font-weight:bold;vertical-align:top;">SCRIPT_NAME</td><td style="vertical-align:top;">:</td><td><div></div></td></tr><tr><td style="font-weight:bold;vertical-align:top;">SERVER_NAME</td><td style="vertical-align:top;">:</td><td><div>BRH-D-70QS2</div></td></tr><tr><td style="font-weight:bold;vertical-align:top;">SERVER_PORT</td><td style="vertical-align:top;">:</td><td><div>8000</div></td></tr><tr><td style="font-weight:bold;vertical-align:top;">SERVER_PROTOCOL</td><td style="vertical-align:top;">:</td><td><div>HTTP/1.1</div></td></tr><tr><td style="font-weight:bold;vertical-align:top;">SERVER_SOFTWARE</td><td style="vertical-align:top;">:</td><td><div>Rocket 1.2.6</div></td></tr><tr><td style="font-weight:bold;vertical-align:top;">app_folders</td><td style="vertical-align:top;">:</td><td><div>set([&#x27;C:\\\\Users\\\\elisha.bere\\\\Downloads\\\\my_python_files\\\\PIZZZA PROJECT\\\\web2py_win\\\\web2py\\\\applications\\\\admin\\\\&#x27;, &#x27;C:\\\\Users\\\\elisha.bere\\\\Downloads\\\\my_python_files\\\\PIZZZA PROJECT\\\\web2py_win\\\\web2py\\\\applications\\\\tafari\\\\&#x27;, &#x27;C:\\\\Users\\\\elisha.bere\\\\Downloads\\\\my_python_files\\\\PIZZZA PROJECT\\\\web2py_win\\\\web2py\\\\applications\\\\project\\\\&#x27;, &#x27;C:\\\\Users\\\\elisha.bere\\\\Downloads\\\\my_python_files\\\\PIZZZA PROJECT\\\\web2py_win\\\\web2py\\\\applications\\\\welcome\\\\&#x27;, &#x27;C:\\\\Users\\\\elisha.bere\\\\Downloads\\\\my_python_files\\\\PIZZZA PROJECT\\\\web2py_win\\\\web2py\\\\applications\\\\Tafari\\\\&#x27;])</div></td></tr><tr><td style="font-weight:bold;vertical-align:top;">applications_parent</td><td style="vertical-align:top;">:</td><td><div>C:\\Users\\elisha.bere\\Downloads\\my_python_files\\PIZZZA PROJECT\\web2py_win\\web2py</div></td></tr><tr><td style="font-weight:bold;vertical-align:top;">cmd_args</td><td style="vertical-align:top;">:</td><td><div><table></table></div></td></tr><tr><td style="font-weight:bold;vertical-align:top;">cmd_options</td><td style="vertical-align:top;">:</td><td><div>&lt;Values at 0x338cd50: {&#x27;verbose&#x27;: False, &#x27;ip&#x27;: &#x27;127.0.0.1&#x27;, &#x27;debuglevel&#x27;: 30, &#x27;with_scheduler&#x27;: False, &#x27;shutdown_timeout&#x27;: 5, &#x27;taskbar&#x27;: False, &#x27;with_coverage&#x27;: False, &#x27;pid_filename&#x27;: &#x27;httpserver.pid&#x27;, &#x27;maxthreads&#x27;: None, &#x27;softcron&#x27;: False, &#x27;server_name&#x27;: &#x27;BRH-D-70QS2&#x27;, &#x27;bpython&#x27;: False, &#x27;nogui&#x27;: False, &#x27;port&#x27;: 8000, &#x27;print_errors&#x27;: False, &#x27;extcron&#x27;: False, &#x27;runcron&#x27;: False, &#x27;run_system_tests&#x27;: False, &#x27;test&#x27;: None, &#x27;folder&#x27;: &#x27;C:\\\\Users\\\\elisha.bere\\\\Downloads\\\\my_python_files\\\\PIZZZA PROJECT\\\\web2py_win\\\\web2py&#x27;, &#x27;config&#x27;: &#x27;&#x27;, &#x27;minthreads&#x27;: None, &#x27;shell&#x27;: None, &#x27;run&#x27;: &#x27;&#x27;, &#x27;log_filename&#x27;: &#x27;httpserver.log&#x27;, &#x27;profiler_dir&#x27;: None, &#x27;args&#x27;: [&#x27;&#x27;], &#x27;socket_timeout&#x27;: 5, &#x27;ssl_ca_certificate&#x27;: None, &#x27;scheduler&#x27;: None, &#x27;interfaces&#x27;: None, &#x27;ssl_private_key&#x27;: &#x27;&#x27;, &#x27;gae&#x27;: None, &#x27;password&#x27;: &#x27;******&#x27;, &#x27;request_queue_size&#x27;: 5, &#x27;ssl_certificate&#x27;: &#x27;&#x27;, &#x27;cronjob&#x27;: False, &#x27;numthreads&#x27;: None, &#x27;quiet&#x27;: False, &#x27;import_models&#x27;: False, &#x27;timeout&#x27;: 10, &#x27;plain&#x27;: False, &#x27;nobanner&#x27;: False}&gt;</div></td></tr><tr><td style="font-weight:bold;vertical-align:top;">content_type</td><td style="vertical-align:top;">:</td><td><div>application/x-www-form-urlencoded; charset=UTF-8</div></td></tr><tr><td style="font-weight:bold;vertical-align:top;">db_sessions</td><td style="vertical-align:top;">:</td><td><div>set([])</div></td></tr><tr><td style="font-weight:bold;vertical-align:top;">debugging</td><td style="vertical-align:top;">:</td><td><div>True</div></td></tr><tr><td style="font-weight:bold;vertical-align:top;">gluon_parent</td><td style="vertical-align:top;">:</td><td><div>C:\\Users\\elisha.bere\\Downloads\\my_python_files\\PIZZZA PROJECT\\web2py_win\\web2py</div></td></tr><tr><td style="font-weight:bold;vertical-align:top;">http_accept</td><td style="vertical-align:top;">:</td><td><div>*/*</div></td></tr><tr><td style="font-weight:bold;vertical-align:top;">http_accept_encoding</td><td style="vertical-align:top;">:</td><td><div>gzip, deflate</div></td></tr><tr><td style="font-weight:bold;vertical-align:top;">http_accept_language</td><td style="vertical-align:top;">:</td><td><div>en-US,en;q=0.5</div></td></tr><tr><td style="font-weight:bold;vertical-align:top;">http_connection</td><td style="vertical-align:top;">:</td><td><div>keep-alive</div></td></tr><tr><td style="font-weight:bold;vertical-align:top;">http_content_type</td><td style="vertical-align:top;">:</td><td><div>application/x-www-form-urlencoded; charset=UTF-8</div></td></tr><tr><td style="font-weight:bold;vertical-align:top;">http_cookie</td><td style="vertical-align:top;">:</td><td><div>__lnkrntdmcvrd=-1; session_id_welcome=127.0.0.1-888e0156-e9d6-4d9a-af6f-dc7e9cc9a13c; session_id_admin=127.0.0.1-9385eae7-8fa3-4627-b9d9-9526b0807a9e; session_id_tafari=127.0.0.1-39ff665a-7562-454d-a27f-4760199be9ca; session_id_project=127.0.0.1-ef192341-78ed-4f15-a1a8-0e4e02b36b7a</div></td></tr><tr><td style="font-weight:bold;vertical-align:top;">http_host</td><td style="vertical-align:top;">:</td><td><div>127.0.0.1:8000</div></td></tr><tr><td style="font-weight:bold;vertical-align:top;">http_referer</td><td style="vertical-align:top;">:</td><td><div>http://127.0.0.1:8000/admin/default/edit/project/controllers/products.py?id=controllers__products__py</div></td></tr><tr><td style="font-weight:bold;vertical-align:top;">http_user_agent</td><td style="vertical-align:top;">:</td><td><div>Mozilla/5.0 (Windows NT 6.1; Win64; x64; rv:60.0) Gecko/20100101 Firefox/60.0</div></td></tr><tr><td style="font-weight:bold;vertical-align:top;">http_web2py_component_element</td><td style="vertical-align:top;">:</td><td><div>c709083715013</div></td></tr><tr><td style="font-weight:bold;vertical-align:top;">http_web2py_component_location</td><td style="vertical-align:top;">:</td><td><div>http://127.0.0.1:8000/admin/default/edit/project/controllers/products.py?id=controllers__products__py</div></td></tr><tr><td style="font-weight:bold;vertical-align:top;">http_x_requested_with</td><td style="vertical-align:top;">:</td><td><div>XMLHttpRequest</div></td></tr><tr><td style="font-weight:bold;vertical-align:top;">is_jython</td><td style="vertical-align:top;">:</td><td><div>False</div></td></tr><tr><td style="font-weight:bold;vertical-align:top;">is_py2</td><td style="vertical-align:top;">:</td><td><div>True</div></td></tr><tr><td style="font-weight:bold;vertical-align:top;">is_pypy</td><td style="vertical-align:top;">:</td><td><div>False</div></td></tr><tr><td style="font-weight:bold;vertical-align:top;">is_source</td><td style="vertical-align:top;">:</td><td><div>False</div></td></tr><tr><td style="font-weight:bold;vertical-align:top;">local_hosts</td><td style="vertical-align:top;">:</td><td><div><table><tr><td><div>fe80::1499:f71b:5252:d9a%11</div></td></tr><tr><td><div>BRH-D-70QS2.rtg.co.zw</div></td></tr><tr><td><div>::ffff:127.0.0.1</div></td></tr><tr><td><div>::1</div></td></tr><tr><td><div>192.168.2.128</div></td></tr><tr><td><div>BRH-D-70QS2</div></td></tr><tr><td><div>127.0.0.1</div></td></tr></table></div></td></tr><tr><td style="font-weight:bold;vertical-align:top;">path_info</td><td style="vertical-align:top;">:</td><td><div>/project/appadmin/hooks</div></td></tr><tr><td style="font-weight:bold;vertical-align:top;">query_string</td><td style="vertical-align:top;">:</td><td><div></div></td></tr><tr><td style="font-weight:bold;vertical-align:top;">remote_addr</td><td style="vertical-align:top;">:</td><td><div>127.0.0.1</div></td></tr><tr><td style="font-weight:bold;vertical-align:top;">remote_port</td><td style="vertical-align:top;">:</td><td><div>59372</div></td></tr><tr><td style="font-weight:bold;vertical-align:top;">request_method</td><td style="vertical-align:top;">:</td><td><div>GET</div></td></tr><tr><td style="font-weight:bold;vertical-align:top;">request_uri</td><td style="vertical-align:top;">:</td><td><div>/project/appadmin/hooks</div></td></tr><tr><td style="font-weight:bold;vertical-align:top;">script_name</td><td style="vertical-align:top;">:</td><td><div></div></td></tr><tr><td style="font-weight:bold;vertical-align:top;">server_name</td><td style="vertical-align:top;">:</td><td><div>BRH-D-70QS2</div></td></tr><tr><td style="font-weight:bold;vertical-align:top;">server_port</td><td style="vertical-align:top;">:</td><td><div>8000</div></td></tr><tr><td style="font-weight:bold;vertical-align:top;">server_protocol</td><td style="vertical-align:top;">:</td><td><div>HTTP/1.1</div></td></tr><tr><td style="font-weight:bold;vertical-align:top;">server_software</td><td style="vertical-align:top;">:</td><td><div>Rocket 1.2.6</div></td></tr><tr><td style="font-weight:bold;vertical-align:top;">web2py_path</td><td style="vertical-align:top;">:</td><td><div>C:\\Users\\elisha.bere\\Downloads\\my_python_files\\PIZZZA PROJECT\\web2py_win\\web2py</div></td></tr><tr><td style="font-weight:bold;vertical-align:top;">web2py_version</td><td style="vertical-align:top;">:</td><td><div>2.16.1-stable+timestamp.2017.11.14.05.54.25</div></td></tr><tr><td style="font-weight:bold;vertical-align:top;">wsgi.errors</td><td style="vertical-align:top;">:</td><td><div>&lt;open file &#x27;&lt;stderr&gt;&#x27;, mode &#x27;w&#x27; at 0x01E1D0D0&gt;</div></td></tr><tr><td style="font-weight:bold;vertical-align:top;">wsgi.file_wrapper</td><td style="vertical-align:top;">:</td><td><div>&lt;class wsgiref.util.FileWrapper at 0x03451960&gt;</div></td></tr><tr><td style="font-weight:bold;vertical-align:top;">wsgi.input</td><td style="vertical-align:top;">:</td><td><div>&lt;socket._fileobject object at 0x086F12B0&gt;</div></td></tr><tr><td style="font-weight:bold;vertical-align:top;">wsgi.multiprocess</td><td style="vertical-align:top;">:</td><td><div>False</div></td></tr><tr><td style="font-weight:bold;vertical-align:top;">wsgi.multithread</td><td style="vertical-align:top;">:</td><td><div>True</div></td></tr><tr><td style="font-weight:bold;vertical-align:top;">wsgi.run_once</td><td style="vertical-align:top;">:</td><td><div>False</div></td></tr><tr><td style="font-weight:bold;vertical-align:top;">wsgi.url_scheme</td><td style="vertical-align:top;">:</td><td><div>http</div></td></tr><tr><td style="font-weight:bold;vertical-align:top;">wsgi.version</td><td style="vertical-align:top;">:</td><td><div><table><tr><td><div>1</div></td></tr><tr><td><div>0</div></td></tr></table></div></td></tr><tr><td style="font-weight:bold;vertical-align:top;">wsgi_errors</td><td style="vertical-align:top;">:</td><td><div>&lt;open file &#x27;&lt;stderr&gt;&#x27;, mode &#x27;w&#x27; at 0x01E1D0D0&gt;</div></td></tr><tr><td style="font-weight:bold;vertical-align:top;">wsgi_file_wrapper</td><td style="vertical-align:top;">:</td><td><div>&lt;class wsgiref.util.FileWrapper at 0x03451960&gt;</div></td></tr><tr><td style="font-weight:bold;vertical-align:top;">wsgi_input</td><td style="vertical-align:top;">:</td><td><div>&lt;socket._fileobject object at 0x086F12B0&gt;</div></td></tr><tr><td style="font-weight:bold;vertical-align:top;">wsgi_multiprocess</td><td style="vertical-align:top;">:</td><td><div>False</div></td></tr><tr><td style="font-weight:bold;vertical-align:top;">wsgi_multithread</td><td style="vertical-align:top;">:</td><td><div>True</div></td></tr><tr><td style="font-weight:bold;vertical-align:top;">wsgi_run_once</td><td style="vertical-align:top;">:</td><td><div>False</div></td></tr><tr><td style="font-weight:bold;vertical-align:top;">wsgi_url_scheme</td><td style="vertical-align:top;">:</td><td><div>http</div></td></tr><tr><td style="font-weight:bold;vertical-align:top;">wsgi_version</td><td style="vertical-align:top;">:</td><td><div><table><tr><td><div>1</div></td></tr><tr><td><div>0</div></td></tr></table></div></td></tr></table></div></td></tr><tr><td style="font-weight:bold;vertical-align:top;">extension</td><td style="vertical-align:top;">:</td><td><div>html</div></td></tr><tr><td style="font-weight:bold;vertical-align:top;">folder</td><td style="vertical-align:top;">:</td><td><div>C:\\Users\\elisha.bere\\Downloads\\my_python_files\\PIZZZA PROJECT\\web2py_win\\web2py\\applications\\project\\</div></td></tr><tr><td style="font-weight:bold;vertical-align:top;">function</td><td style="vertical-align:top;">:</td><td><div>hooks</div></td></tr><tr><td style="font-weight:bold;vertical-align:top;">global_settings</td><td style="vertical-align:top;">:</td><td><div><table><tr><td style="font-weight:bold;vertical-align:top;">app_folders</td><td style="vertical-align:top;">:</td><td><div>set([&#x27;C:\\\\Users\\\\elisha.bere\\\\Downloads\\\\my_python_files\\\\PIZZZA PROJECT\\\\web2py_win\\\\web2py\\\\applications\\\\admin\\\\&#x27;, &#x27;C:\\\\Users\\\\elisha.bere\\\\Downloads\\\\my_python_files\\\\PIZZZA PROJECT\\\\web2py_win\\\\web2py\\\\applications\\\\tafari\\\\&#x27;, &#x27;C:\\\\Users\\\\elisha.bere\\\\Downloads\\\\my_python_files\\\\PIZZZA PROJECT\\\\web2py_win\\\\web2py\\\\applications\\\\project\\\\&#x27;, &#x27;C:\\\\Users\\\\elisha.bere\\\\Downloads\\\\my_python_files\\\\PIZZZA PROJECT\\\\web2py_win\\\\web2py\\\\applications\\\\welcome\\\\&#x27;, &#x27;C:\\\\Users\\\\elisha.bere\\\\Downloads\\\\my_python_files\\\\PIZZZA PROJECT\\\\web2py_win\\\\web2py\\\\applications\\\\Tafari\\\\&#x27;])</div></td></tr><tr><td style="font-weight:bold;vertical-align:top;">applications_parent</td><td style="vertical-align:top;">:</td><td><div>C:\\Users\\elisha.bere\\Downloads\\my_python_files\\PIZZZA PROJECT\\web2py_win\\web2py</div></td></tr><tr><td style="font-weight:bold;vertical-align:top;">cmd_args</td><td style="vertical-align:top;">:</td><td><div><table></table></div></td></tr><tr><td style="font-weight:bold;vertical-align:top;">cmd_options</td><td style="vertical-align:top;">:</td><td><div>&lt;Values at 0x338cd50: {&#x27;verbose&#x27;: False, &#x27;ip&#x27;: &#x27;127.0.0.1&#x27;, &#x27;debuglevel&#x27;: 30, &#x27;with_scheduler&#x27;: False, &#x27;shutdown_timeout&#x27;: 5, &#x27;taskbar&#x27;: False, &#x27;with_coverage&#x27;: False, &#x27;pid_filename&#x27;: &#x27;httpserver.pid&#x27;, &#x27;maxthreads&#x27;: None, &#x27;softcron&#x27;: False, &#x27;server_name&#x27;: &#x27;BRH-D-70QS2&#x27;, &#x27;bpython&#x27;: False, &#x27;nogui&#x27;: False, &#x27;port&#x27;: 8000, &#x27;print_errors&#x27;: False, &#x27;extcron&#x27;: False, &#x27;runcron&#x27;: False, &#x27;run_system_tests&#x27;: False, &#x27;test&#x27;: None, &#x27;folder&#x27;: &#x27;C:\\\\Users\\\\elisha.bere\\\\Downloads\\\\my_python_files\\\\PIZZZA PROJECT\\\\web2py_win\\\\web2py&#x27;, &#x27;config&#x27;: &#x27;&#x27;, &#x27;minthreads&#x27;: None, &#x27;shell&#x27;: None, &#x27;run&#x27;: &#x27;&#x27;, &#x27;log_filename&#x27;: &#x27;httpserver.log&#x27;, &#x27;profiler_dir&#x27;: None, &#x27;args&#x27;: [&#x27;&#x27;], &#x27;socket_timeout&#x27;: 5, &#x27;ssl_ca_certificate&#x27;: None, &#x27;scheduler&#x27;: None, &#x27;interfaces&#x27;: None, &#x27;ssl_private_key&#x27;: &#x27;&#x27;, &#x27;gae&#x27;: None, &#x27;password&#x27;: &#x27;******&#x27;, &#x27;request_queue_size&#x27;: 5, &#x27;ssl_certificate&#x27;: &#x27;&#x27;, &#x27;cronjob&#x27;: False, &#x27;numthreads&#x27;: None, &#x27;quiet&#x27;: False, &#x27;import_models&#x27;: False, &#x27;timeout&#x27;: 10, &#x27;plain&#x27;: False, &#x27;nobanner&#x27;: False}&gt;</div></td></tr><tr><td style="font-weight:bold;vertical-align:top;">db_sessions</td><td style="vertical-align:top;">:</td><td><div>set([])</div></td></tr><tr><td style="font-weight:bold;vertical-align:top;">debugging</td><td style="vertical-align:top;">:</td><td><div>True</div></td></tr><tr><td style="font-weight:bold;vertical-align:top;">gluon_parent</td><td style="vertical-align:top;">:</td><td><div>C:\\Users\\elisha.bere\\Downloads\\my_python_files\\PIZZZA PROJECT\\web2py_win\\web2py</div></td></tr><tr><td style="font-weight:bold;vertical-align:top;">is_jython</td><td style="vertical-align:top;">:</td><td><div>False</div></td></tr><tr><td style="font-weight:bold;vertical-align:top;">is_py2</td><td style="vertical-align:top;">:</td><td><div>True</div></td></tr><tr><td style="font-weight:bold;vertical-align:top;">is_pypy</td><td style="vertical-align:top;">:</td><td><div>False</div></td></tr><tr><td style="font-weight:bold;vertical-align:top;">is_source</td><td style="vertical-align:top;">:</td><td><div>False</div></td></tr><tr><td style="font-weight:bold;vertical-align:top;">local_hosts</td><td style="vertical-align:top;">:</td><td><div><table><tr><td><div>fe80::1499:f71b:5252:d9a%11</div></td></tr><tr><td><div>BRH-D-70QS2.rtg.co.zw</div></td></tr><tr><td><div>::ffff:127.0.0.1</div></td></tr><tr><td><div>::1</div></td></tr><tr><td><div>192.168.2.128</div></td></tr><tr><td><div>BRH-D-70QS2</div></td></tr><tr><td><div>127.0.0.1</div></td></tr></table></div></td></tr><tr><td style="font-weight:bold;vertical-align:top;">web2py_version</td><td style="vertical-align:top;">:</td><td><div>2.16.1-stable+timestamp.2017.11.14.05.54.25</div></td></tr></table></div></td></tr><tr><td style="font-weight:bold;vertical-align:top;">is_https</td><td style="vertical-align:top;">:</td><td><div>False</div></td></tr><tr><td style="font-weight:bold;vertical-align:top;">is_local</td><td style="vertical-align:top;">:</td><td><div>True</div></td></tr><tr><td style="font-weight:bold;vertical-align:top;">is_restful</td><td style="vertical-align:top;">:</td><td><div>False</div></td></tr><tr><td style="font-weight:bold;vertical-align:top;">is_scheduler</td><td style="vertical-align:top;">:</td><td><div>False</div></td></tr><tr><td style="font-weight:bold;vertical-align:top;">is_shell</td><td style="vertical-align:top;">:</td><td><div>False</div></td></tr><tr><td style="font-weight:bold;vertical-align:top;">now</td><td style="vertical-align:top;">:</td><td><div>datetime.datetime(2018, 6, 5, 13, 32, 32, 599000)</div></td></tr><tr><td style="font-weight:bold;vertical-align:top;">raw_args</td><td style="vertical-align:top;">:</td><td><div></div></td></tr><tr><td style="font-weight:bold;vertical-align:top;">raw_extension</td><td style="vertical-align:top;">:</td><td><div>None</div></td></tr><tr><td style="font-weight:bold;vertical-align:top;">url</td><td style="vertical-align:top;">:</td><td><div>/project/appadmin/hooks</div></td></tr><tr><td style="font-weight:bold;vertical-align:top;">utcnow</td><td style="vertical-align:top;">:</td><td><div>datetime.datetime(2018, 6, 5, 11, 32, 32, 599000)</div></td></tr><tr><td style="font-weight:bold;vertical-align:top;">wsgi</td><td style="vertical-align:top;">:</td><td><div>&lt;gluon.main.LazyWSGI object at 0x089F38B0&gt;</div></td></tr></table></div>'
tRp64
sS'frames'
p65
(lp66
(dp67
S'file'
p68
S'C:\\Users\\elisha.bere\\Downloads\\my_python_files\\PIZZZA PROJECT\\web2py_win\\web2py\\gluon\\restricted.py'
p69
sS'dump'
p70
(dp71
S'environment'
p72
S"{'A': <class 'gluon.html.A'>, 'ANY_OF': <class 'gluon.validators.ANY_OF'>, 'ASSIGNJS': <function ASSIGNJS>, 'AppConfig': <function AppConfig>, 'Auth': <class 'gluon.tools.Auth'>, 'B': <class 'gluon.html.B'>, 'BEAUTIFY': <class 'gluon.html.BEAUTIFY'>, 'BODY': <class 'gluon.html.BODY'>, 'BR': <class 'gluon.html.BR'>, 'BUTTON': <class 'gluon.html.BUTTON'>, ...}"
p73
sS'ccode'
p74
S'<code object <module> at 085193C8, file "C:\\User...eb2py\\applications\\project\\models\\db.py", line 7>'
p75
ssS'lnum'
p76
I219
sS'lines'
p77
(dp78
I214
S'    if environment is None:'
p79
sI215
S'        environment = {}'
p80
sI216
S"    environment['__file__'] = layer"
p81
sI217
S"    environment['__name__'] = '__restricted__'"
p82
sI218
S'    try:'
p83
sI219
S'        exec(ccode, environment)'
p84
sI220
S'    except HTTP:'
p85
sI221
S'        raise'
p86
sI222
S'    except RestrictedError:'
p87
sI223
S'        # do not encapsulate (obfuscate) the original RestrictedError'
p88
ssS'call'
p89
S'(ccode=<code object <module> at 085193C8, file "C:\\User...eb2py\\applications\\project\\models\\db.py", line 7>, environment={\'A\': <class \'gluon.html.A\'>, \'ANY_OF\': <class \'gluon.validators.ANY_OF\'>, \'ASSIGNJS\': <function ASSIGNJS>, \'AppConfig\': <function AppConfig>, \'Auth\': <class \'gluon.tools.Auth\'>, \'B\': <class \'gluon.html.B\'>, \'BEAUTIFY\': <class \'gluon.html.BEAUTIFY\'>, \'BODY\': <class \'gluon.html.BODY\'>, \'BR\': <class \'gluon.html.BR\'>, \'BUTTON\': <class \'gluon.html.BUTTON\'>, ...}, layer=r\'C:\\Users\\elisha.bere\\Downloads\\my_python_files\\P...b2py_win\\web2py\\applications\\project\\models\\db.py\', scode=<code object <module> at 085193C8, file "C:\\User...eb2py\\applications\\project\\models\\db.py", line 7>)'
p90
sS'func'
p91
S'restricted'
p92
sa(dp93
g68
S'C:\\Users\\elisha.bere\\Downloads\\my_python_files\\PIZZZA PROJECT\\web2py_win\\web2py\\applications\\project\\models\\db.py'
p94
sg70
(dp95
S'Field'
p96
S"<class 'pydal.objects.Field'>"
p97
sS'db.products'
p98
S'<Table products (id, product_name, current_price...reated_on, created_by, modified_on, modified_by)>'
p99
sS'db'
p100
S'<DAL uri="sqlite://storage.sqlite">'
p101
ssg76
I170
sg77
(dp102
I162
S'    auth.signature,'
p103
sI163
S'    )'
p104
sI164
S''
sI165
S"db.define_table('online_orders',"
p105
sI166
S"    Field('cust_id',db.auth_user),"
p106
sI167
S"    Field('prod_id',db.products),"
p107
sI168
S"    Field('order_date',type='date'),"
p108
sI169
S"    Field('total_price','float'),"
p109
sI170
S"    Field('description','string',db.products)"
p110
sI171
S'    )'
p111
ssg89
S'()'
p112
sg91
S'<module>'
p113
sa(dp114
g68
S'C:\\Users\\elisha.bere\\Downloads\\my_python_files\\PIZZZA PROJECT\\web2py_win\\web2py\\gluon\\packages\\dal\\pydal\\base.py'
p115
sg70
(dp116
S'fields'
p117
S'(<pydal.objects.Field object>, <pydal.objects.Field object>, <pydal.objects.Field object>, <pydal.objects.Field object>, <pydal.objects.Field object>)'
p118
sS'self'
p119
S'<DAL uri="sqlite://storage.sqlite">'
p120
sS'args'
p121
g21
sS'tablename'
p122
S"'online_orders'"
p123
sS'table'
p124
S'undefined'
p125
sS'self.lazy_define_table'
p126
S'<bound method DAL.lazy_define_table of <DAL uri="sqlite://storage.sqlite">>'
p127
ssg76
I586
sg77
(dp128
I581
S'                                  (tablename, invalid_args))'
p129
sI582
S'        if self._lazy_tables and tablename not in self._LAZY_TABLES:'
p130
sI583
S'            self._LAZY_TABLES[tablename] = (tablename, fields, args)'
p131
sI584
S'            table = None'
p132
sI585
S'        else:'
p133
sI586
S'            table = self.lazy_define_table(tablename, *fields, **args)'
p134
sI587
S'        if tablename not in self.tables:'
p135
sI588
S'            self.tables.append(tablename)'
p136
sI589
S'        return table'
p137
sI590
S''
ssg89
S'(self=<DAL uri="sqlite://storage.sqlite">, tablename=\'online_orders\', *fields=(<pydal.objects.Field object>, <pydal.objects.Field object>, <pydal.objects.Field object>, <pydal.objects.Field object>, <pydal.objects.Field object>), **args={})'
p138
sg91
S'define_table'
p139
sa(dp140
g68
S'C:\\Users\\elisha.bere\\Downloads\\my_python_files\\PIZZZA PROJECT\\web2py_win\\web2py\\gluon\\packages\\dal\\pydal\\base.py'
p141
sg70
(dp142
S'polymodel'
p143
S'None'
p144
ssg76
I620
sg77
(dp145
I615
S'            try:'
p146
sI616
S'                GLOBAL_LOCKER.acquire()'
p147
sI617
S'                self._adapter.create_table('
p148
sI618
S'                    table, migrate=migrate,'
p149
sI619
S'                    fake_migrate=fake_migrate,'
p150
sI620
S'                    polymodel=polymodel)'
p151
sI621
S'            finally:'
p152
sI622
S'                GLOBAL_LOCKER.release()'
p153
sI623
S'        else:'
p154
sI624
S'            table._dbt = None'
p155
ssg89
S'(self=<DAL uri="sqlite://storage.sqlite">, tablename=\'online_orders\', *fields=(<pydal.objects.Field object>, <pydal.objects.Field object>, <pydal.objects.Field object>, <pydal.objects.Field object>, <pydal.objects.Field object>), **args={})'
p156
sg91
S'lazy_define_table'
p157
sa(dp158
g68
S'C:\\Users\\elisha.bere\\Downloads\\my_python_files\\PIZZZA PROJECT\\web2py_win\\web2py\\gluon\\packages\\dal\\pydal\\adapters\\base.py'
p159
sg70
(dp160
S'self'
p161
S'<pydal.adapters.sqlite.SQLite object>'
p162
sS'args'
p163
S'(<Table online_orders (id, cust_id, prod_id, order_date, total_price, description)>,)'
p164
sS'self.migrator'
p165
S'<pydal.migrator.Migrator object>'
p166
sS'self.migrator.create_table'
p167
S'<bound method Migrator.create_table of <pydal.migrator.Migrator object>>'
p168
sS'kwargs'
p169
S"{'fake_migrate': False, 'migrate': True, 'polymodel': None}"
p170
ssg76
I797
sg77
(dp171
I800
S'        super(SQLAdapter, self)._drop_table_cleanup(table)'
p172
sI801
S'        if table._dbt:'
p173
sI792
S''
sI793
S'    def bulk_insert(self, table, items):'
p174
sI794
S'        return [self.insert(table, item) for item in items]'
p175
sI795
S''
sI796
S'    def create_table(self, *args, **kwargs):'
p176
sI797
S'        return self.migrator.create_table(*args, **kwargs)'
p177
sI798
S''
sI799
S'    def _drop_table_cleanup(self, table):'
p178
ssg89
S"(self=<pydal.adapters.sqlite.SQLite object>, *args=(<Table online_orders (id, cust_id, prod_id, order_date, total_price, description)>,), **kwargs={'fake_migrate': False, 'migrate': True, 'polymodel': None})"
p179
sg91
S'create_table'
p180
sa(dp181
g68
S'C:\\Users\\elisha.bere\\Downloads\\my_python_files\\PIZZZA PROJECT\\web2py_win\\web2py\\gluon\\packages\\dal\\pydal\\migrator.py'
p182
sg70
(dp183
S'query'
p184
S'\'CREATE TABLE "online_orders"(\\n    "id" INTEGER P...rice" DOUBLE,\\n    "description" CHAR(products)\\n);\''
p185
sS'self'
p186
S'<pydal.migrator.Migrator object>'
p187
sS'self.adapter'
p188
S'<pydal.adapters.sqlite.SQLite object>'
p189
sS'self.adapter.create_sequence_and_triggers'
p190
S'<bound method SQLite.create_sequence_and_triggers of <pydal.adapters.sqlite.SQLite object>>'
p191
sS'table'
p192
S'<Table online_orders (id, cust_id, prod_id, order_date, total_price, description)>'
p193
ssg76
I277
sg77
(dp194
I272
S'            if table._dbt:'
p195
sI273
S"                self.log('timestamp: %s\\n%s\\n'"
p196
sI274
S'                         % (datetime.datetime.today().isoformat(),'
p197
sI275
S'                            query), table)'
p198
sI276
S'            if not fake_migrate:'
p199
sI277
S'                self.adapter.create_sequence_and_triggers(query, table)'
p200
sI278
S'                db.commit()'
p201
sI279
S'                # Postgres geom fields are added now,'
p202
sI280
S'                # after the table has been created'
p203
sI281
S'                for query in postcreation_fields:'
p204
ssg89
S'(self=<pydal.migrator.Migrator object>, table=<Table online_orders (id, cust_id, prod_id, order_date, total_price, description)>, migrate=True, fake_migrate=False, polymodel=None)'
p205
sg91
g180
sa(dp206
g68
S'C:\\Users\\elisha.bere\\Downloads\\my_python_files\\PIZZZA PROJECT\\web2py_win\\web2py\\gluon\\packages\\dal\\pydal\\adapters\\base.py'
p207
sg70
(dp208
S'query'
p209
S'\'CREATE TABLE "online_orders"(\\n    "id" INTEGER P...rice" DOUBLE,\\n    "description" CHAR(products)\\n);\''
p210
sS'self'
p211
S'<pydal.adapters.sqlite.SQLite object>'
p212
sS'self.execute'
p213
S'<bound method SQLite.wrap of <pydal.adapters.sqlite.SQLite object>>'
p214
ssg76
I880
sg77
(dp215
I875
S'    @with_connection'
p216
sI876
S'    def rollback_prepared(self, key):'
p217
sI877
S'        self.connection.rollback()'
p218
sI878
S''
sI879
S'    def create_sequence_and_triggers(self, query, table, **args):'
p219
sI880
S'        self.execute(query)'
p220
sI881
S''
sI882
S'    def sqlsafe_table(self, tablename, original_tablename=None):'
p221
sI883
S'        if original_tablename is not None:'
p222
sI884
S'            return self.dialect.alias(original_tablename, tablename)'
p223
ssg89
S'(self=<pydal.adapters.sqlite.SQLite object>, query=\'CREATE TABLE "online_orders"(\\n    "id" INTEGER P...rice" DOUBLE,\\n    "description" CHAR(products)\\n);\', table=<Table online_orders (id, cust_id, prod_id, order_date, total_price, description)>, **args={})'
p224
sg91
S'create_sequence_and_triggers'
p225
sa(dp226
g68
S'C:\\Users\\elisha.bere\\Downloads\\my_python_files\\PIZZZA PROJECT\\web2py_win\\web2py\\gluon\\packages\\dal\\pydal\\adapters\\__init__.py'
p227
sg70
(dp228
S'kwargs'
p229
g21
sS'args'
p230
S'(<pydal.adapters.sqlite.SQLite object>, \'CREATE TABLE "online_orders"(\\n    "id" INTEGER P...rice" DOUBLE,\\n    "description" CHAR(products)\\n);\')'
p231
sS'f'
S'<function execute>'
p232
ssg76
I67
sg77
(dp233
I64
S'            if len(args) > 1:'
p234
sI65
S'                raise ValueError(args[1])'
p235
sI66
S"            raise RuntimeError('no connection available')"
p236
sI67
S'        return f(*args, **kwargs)'
p237
sI68
S'    return wrap'
p238
sI69
S''
sI70
S''
sI71
S'from .base import SQLAdapter, NoSQLAdapter'
p239
sI62
S'    def wrap(*args, **kwargs):'
p240
sI63
S'        if not args[0].connection:'
p241
ssg89
S'(*args=(<pydal.adapters.sqlite.SQLite object>, \'CREATE TABLE "online_orders"(\\n    "id" INTEGER P...rice" DOUBLE,\\n    "description" CHAR(products)\\n);\'), **kwargs={})'
p242
sg91
S'wrap'
p243
sa(dp244
g68
S'C:\\Users\\elisha.bere\\Downloads\\my_python_files\\PIZZZA PROJECT\\web2py_win\\web2py\\gluon\\packages\\dal\\pydal\\adapters\\base.py'
p245
sg70
(dp246
S'rv'
p247
g125
sS'self'
p248
S'<pydal.adapters.sqlite.SQLite object>'
p249
sS'args'
p250
S'(\'CREATE TABLE "online_orders"(\\n    "id" INTEGER P...rice" DOUBLE,\\n    "description" CHAR(products)\\n);\',)'
p251
sS'self.cursor'
p252
S'<sqlite3.Cursor object>'
p253
sS'command'
p254
S'\'CREATE TABLE "online_orders"(\\n    "id" INTEGER P...rice" DOUBLE,\\n    "description" CHAR(products)\\n);\''
p255
sS'self.cursor.execute'
p256
S'<built-in method execute of sqlite3.Cursor object>'
p257
sS'kwargs'
p258
g21
ssg76
I412
sg77
(dp259
I416
S''
sI407
S'    def execute(self, *args, **kwargs):'
p260
sI408
S'        command = self.filter_sql_command(args[0])'
p261
sI409
S'        handlers = self._build_handlers_for_execution()'
p262
sI410
S'        for handler in handlers:'
p263
sI411
S'            handler.before_execute(command)'
p264
sI412
S'        rv = self.cursor.execute(command, *args[1:], **kwargs)'
p265
sI413
S'        for handler in handlers:'
p266
sI414
S'            handler.after_execute(command)'
p267
sI415
S'        return rv'
p268
ssg89
S'(self=<pydal.adapters.sqlite.SQLite object>, *args=(\'CREATE TABLE "online_orders"(\\n    "id" INTEGER P...rice" DOUBLE,\\n    "description" CHAR(products)\\n);\',), **kwargs={})'
p269
sg91
S'execute'
p270
sasS'pyver'
p271
S'Python 2.7.9: C:\\Users\\elisha.bere\\Downloads\\my_python_files\\PIZZZA PROJECT\\web2py_win\\web2py\\web2py.exe (prefix: )'
p272
sS'session'
p273
g63
(S's\n\n\x00\x00<div><table><tr><td style="font-weight:bold;vertical-align:top;">auth</td><td style="vertical-align:top;">:</td><td><div><table><tr><td style="font-weight:bold;vertical-align:top;">expiration</td><td style="vertical-align:top;">:</td><td><div>2592000</div></td></tr><tr><td style="font-weight:bold;vertical-align:top;">hmac_key</td><td style="vertical-align:top;">:</td><td><div>5a0aa6be-981a-41ff-9b5b-16d009e4727c</div></td></tr><tr><td style="font-weight:bold;vertical-align:top;">last_visit</td><td style="vertical-align:top;">:</td><td><div>datetime.datetime(2018, 6, 5, 12, 14, 51, 848000)</div></td></tr><tr><td style="font-weight:bold;vertical-align:top;">remember_me</td><td style="vertical-align:top;">:</td><td><div>True</div></td></tr><tr><td style="font-weight:bold;vertical-align:top;">user</td><td style="vertical-align:top;">:</td><td><div><table><tr><td style="font-weight:bold;vertical-align:top;">email</td><td style="vertical-align:top;">:</td><td><div>elishabe5@gmail.com</div></td></tr><tr><td style="font-weight:bold;vertical-align:top;">first_name</td><td style="vertical-align:top;">:</td><td><div>Elisha</div></td></tr><tr><td style="font-weight:bold;vertical-align:top;">id</td><td style="vertical-align:top;">:</td><td><div>2L</div></td></tr><tr><td style="font-weight:bold;vertical-align:top;">last_name</td><td style="vertical-align:top;">:</td><td><div>Bere</div></td></tr><tr><td style="font-weight:bold;vertical-align:top;">registration_id</td><td style="vertical-align:top;">:</td><td><div></div></td></tr><tr><td style="font-weight:bold;vertical-align:top;">registration_key</td><td style="vertical-align:top;">:</td><td><div></div></td></tr><tr><td style="font-weight:bold;vertical-align:top;">reset_password_key</td><td style="vertical-align:top;">:</td><td><div></div></td></tr></table></div></td></tr><tr><td style="font-weight:bold;vertical-align:top;">user_groups</td><td style="vertical-align:top;">:</td><td><div><table><tr><td style="font-weight:bold;vertical-align:top;">2</td><td style="vertical-align:top;">:</td><td><div>admin</div></td></tr></table></div></td></tr></table></div></td></tr><tr><td style="font-weight:bold;vertical-align:top;">flash</td><td style="vertical-align:top;">:</td><td><div>None</div></td></tr><tr><td style="font-weight:bold;vertical-align:top;">last_orderby</td><td style="vertical-align:top;">:</td><td><div>None</div></td></tr><tr><td style="font-weight:bold;vertical-align:top;">last_query</td><td style="vertical-align:top;">:</td><td><div>db.auth_user.id&gt;0</div></td></tr></table></div>'
tRp274
sS'etype'
p275
S"<class 'sqlite3.OperationalError'>"
p276
sS'date'
p277
S'Tue Jun 05 13:32:33 2018'
p278
sS'response'
p279
g63
(S's;\x1b\x00\x00<div><table><tr><td style="font-weight:bold;vertical-align:top;">body</td><td style="vertical-align:top;">:</td><td><div>&lt;cStringIO.StringO object at 0x08589240&gt;</div></td></tr><tr><td style="font-weight:bold;vertical-align:top;">cookies</td><td style="vertical-align:top;">:</td><td><div><table><tr><td style="font-weight:bold;vertical-align:top;">session_id_project</td><td style="vertical-align:top;">:</td><td><div>127.0.0.1-ef192341-78ed-4f15-a1a8-0e4e02b36b7a<table><tr><td style="font-weight:bold;vertical-align:top;">comment</td><td style="vertical-align:top;">:</td><td><div></div></td></tr><tr><td style="font-weight:bold;vertical-align:top;">domain</td><td style="vertical-align:top;">:</td><td><div></div></td></tr><tr><td style="font-weight:bold;vertical-align:top;">expires</td><td style="vertical-align:top;">:</td><td><div></div></td></tr><tr><td style="font-weight:bold;vertical-align:top;">httponly</td><td style="vertical-align:top;">:</td><td><div></div></td></tr><tr><td style="font-weight:bold;vertical-align:top;">max-age</td><td style="vertical-align:top;">:</td><td><div></div></td></tr><tr><td style="font-weight:bold;vertical-align:top;">path</td><td style="vertical-align:top;">:</td><td><div>/</div></td></tr><tr><td style="font-weight:bold;vertical-align:top;">secure</td><td style="vertical-align:top;">:</td><td><div></div></td></tr><tr><td style="font-weight:bold;vertical-align:top;">version</td><td style="vertical-align:top;">:</td><td><div></div></td></tr></table></div></td></tr></table></div></td></tr><tr><td style="font-weight:bold;vertical-align:top;">delimiters</td><td style="vertical-align:top;">:</td><td><div><table><tr><td><div>{{</div></td></tr><tr><td><div>}}</div></td></tr></table></div></td></tr><tr><td style="font-weight:bold;vertical-align:top;">files</td><td style="vertical-align:top;">:</td><td><div><table></table></div></td></tr><tr><td style="font-weight:bold;vertical-align:top;">flash</td><td style="vertical-align:top;">:</td><td><div></div></td></tr><tr><td style="font-weight:bold;vertical-align:top;">form_label_separator</td><td style="vertical-align:top;">:</td><td><div></div></td></tr><tr><td style="font-weight:bold;vertical-align:top;">formstyle</td><td style="vertical-align:top;">:</td><td><div>bootstrap4_inline</div></td></tr><tr><td style="font-weight:bold;vertical-align:top;">generic_patterns</td><td style="vertical-align:top;">:</td><td><div><table><tr><td><div>*</div></td></tr></table></div></td></tr><tr><td style="font-weight:bold;vertical-align:top;">google_analytics_id</td><td style="vertical-align:top;">:</td><td><div>None</div></td></tr><tr><td style="font-weight:bold;vertical-align:top;">headers</td><td style="vertical-align:top;">:</td><td><div><table><tr><td style="font-weight:bold;vertical-align:top;">X-Powered-By</td><td style="vertical-align:top;">:</td><td><div>web2py</div></td></tr></table></div></td></tr><tr><td style="font-weight:bold;vertical-align:top;">menu</td><td style="vertical-align:top;">:</td><td><div><table></table></div></td></tr><tr><td style="font-weight:bold;vertical-align:top;">meta</td><td style="vertical-align:top;">:</td><td><div><table><tr><td style="font-weight:bold;vertical-align:top;">author</td><td style="vertical-align:top;">:</td><td><div>Your Name &lt;you@example.com&gt;</div></td></tr><tr><td style="font-weight:bold;vertical-align:top;">description</td><td style="vertical-align:top;">:</td><td><div>a cool new app</div></td></tr><tr><td style="font-weight:bold;vertical-align:top;">generator</td><td style="vertical-align:top;">:</td><td><div>Web2py Web Framework</div></td></tr><tr><td style="font-weight:bold;vertical-align:top;">keywords</td><td style="vertical-align:top;">:</td><td><div><table><tr><td><div>web2py</div></td></tr><tr><td><div>python</div></td></tr><tr><td><div>framework</div></td></tr></table></div></td></tr></table></div></td></tr><tr><td style="font-weight:bold;vertical-align:top;">models_to_run</td><td style="vertical-align:top;">:</td><td><div><table><tr><td><div>^\\w+\\.py$</div></td></tr><tr><td><div>^appadmin/\\w+\\.py$</div></td></tr><tr><td><div>^appadmin/hooks/\\w+\\.py$</div></td></tr></table></div></td></tr><tr><td style="font-weight:bold;vertical-align:top;">postprocessing</td><td style="vertical-align:top;">:</td><td><div><table></table></div></td></tr><tr><td style="font-weight:bold;vertical-align:top;">session_client</td><td style="vertical-align:top;">:</td><td><div>127.0.0.1</div></td></tr><tr><td style="font-weight:bold;vertical-align:top;">session_cookie_compression_level</td><td style="vertical-align:top;">:</td><td><div>None</div></td></tr><tr><td style="font-weight:bold;vertical-align:top;">session_cookie_expires</td><td style="vertical-align:top;">:</td><td><div>2592000</div></td></tr><tr><td style="font-weight:bold;vertical-align:top;">session_data_name</td><td style="vertical-align:top;">:</td><td><div>session_data_project</div></td></tr><tr><td style="font-weight:bold;vertical-align:top;">session_file</td><td style="vertical-align:top;">:</td><td><div>&lt;open file &#x27;C:\\\\Users\\\\elisha.bere\\\\Downloads\\\\my_python_files\\\\PIZZZA PROJECT\\\\web2py_win\\\\web2py\\\\applications\\\\project\\\\sessions\\\\125\\\\195\\\\127.0.0.1-ef192341-78ed-4f15-a1a8-0e4e02b36b7a&#x27;, mode &#x27;rb+&#x27; at 0x0830A9C0&gt;</div></td></tr><tr><td style="font-weight:bold;vertical-align:top;">session_filename</td><td style="vertical-align:top;">:</td><td><div>C:\\Users\\elisha.bere\\Downloads\\my_python_files\\PIZZZA PROJECT\\web2py_win\\web2py\\applications\\project\\sessions\\127.0.0.1-ef192341-78ed-4f15-a1a8-0e4e02b36b7a</div></td></tr><tr><td style="font-weight:bold;vertical-align:top;">session_hash</td><td style="vertical-align:top;">:</td><td><div>5ecdb1ce8ebdbc6dd72b105fe338d3d2</div></td></tr><tr><td style="font-weight:bold;vertical-align:top;">session_id</td><td style="vertical-align:top;">:</td><td><div>127.0.0.1-ef192341-78ed-4f15-a1a8-0e4e02b36b7a</div></td></tr><tr><td style="font-weight:bold;vertical-align:top;">session_id_name</td><td style="vertical-align:top;">:</td><td><div>session_id_project</div></td></tr><tr><td style="font-weight:bold;vertical-align:top;">session_locked</td><td style="vertical-align:top;">:</td><td><div>True</div></td></tr><tr><td style="font-weight:bold;vertical-align:top;">session_masterapp</td><td style="vertical-align:top;">:</td><td><div>project</div></td></tr><tr><td style="font-weight:bold;vertical-align:top;">session_new</td><td style="vertical-align:top;">:</td><td><div>False</div></td></tr><tr><td style="font-weight:bold;vertical-align:top;">session_storage_type</td><td style="vertical-align:top;">:</td><td><div>file</div></td></tr><tr><td style="font-weight:bold;vertical-align:top;">status</td><td style="vertical-align:top;">:</td><td><div>200</div></td></tr><tr><td style="font-weight:bold;vertical-align:top;">view</td><td style="vertical-align:top;">:</td><td><div>appadmin/hooks.html</div></td></tr></table></div>'
tRp280
sS'locals'
p281
(dp282
S'handlers'
p283
S'[<pydal.helpers.classes.TimingHandler object>]'
p284
sS'self'
p285
S'<pydal.adapters.sqlite.SQLite object>'
p286
sg48
S'(\'CREATE TABLE "online_orders"(\\n    "id" INTEGER P...rice" DOUBLE,\\n    "description" CHAR(products)\\n);\',)'
p287
sS'handler'
p288
S'<pydal.helpers.classes.TimingHandler object>'
p289
sS'command'
p290
S'\'CREATE TABLE "online_orders"(\\n    "id" INTEGER P...rice" DOUBLE,\\n    "description" CHAR(products)\\n);\''
p291
sS'kwargs'
p292
g21
sssS'traceback'
p293
S'Traceback (most recent call last):\n  File "C:\\Users\\elisha.bere\\Downloads\\my_python_files\\PIZZZA PROJECT\\web2py_win\\web2py\\gluon\\restricted.py", line 219, in restricted\n    exec(ccode, environment)\n  File "C:\\Users\\elisha.bere\\Downloads\\my_python_files\\PIZZZA PROJECT\\web2py_win\\web2py\\applications\\project\\models\\db.py", line 170, in <module>\n    Field(\'description\',\'string\',db.products)\n  File "C:\\Users\\elisha.bere\\Downloads\\my_python_files\\PIZZZA PROJECT\\web2py_win\\web2py\\gluon\\packages\\dal\\pydal\\base.py", line 586, in define_table\n    table = self.lazy_define_table(tablename, *fields, **args)\n  File "C:\\Users\\elisha.bere\\Downloads\\my_python_files\\PIZZZA PROJECT\\web2py_win\\web2py\\gluon\\packages\\dal\\pydal\\base.py", line 620, in lazy_define_table\n    polymodel=polymodel)\n  File "C:\\Users\\elisha.bere\\Downloads\\my_python_files\\PIZZZA PROJECT\\web2py_win\\web2py\\gluon\\packages\\dal\\pydal\\adapters\\base.py", line 797, in create_table\n    return self.migrator.create_table(*args, **kwargs)\n  File "C:\\Users\\elisha.bere\\Downloads\\my_python_files\\PIZZZA PROJECT\\web2py_win\\web2py\\gluon\\packages\\dal\\pydal\\migrator.py", line 277, in create_table\n    self.adapter.create_sequence_and_triggers(query, table)\n  File "C:\\Users\\elisha.bere\\Downloads\\my_python_files\\PIZZZA PROJECT\\web2py_win\\web2py\\gluon\\packages\\dal\\pydal\\adapters\\base.py", line 880, in create_sequence_and_triggers\n    self.execute(query)\n  File "C:\\Users\\elisha.bere\\Downloads\\my_python_files\\PIZZZA PROJECT\\web2py_win\\web2py\\gluon\\packages\\dal\\pydal\\adapters\\__init__.py", line 67, in wrap\n    return f(*args, **kwargs)\n  File "C:\\Users\\elisha.bere\\Downloads\\my_python_files\\PIZZZA PROJECT\\web2py_win\\web2py\\gluon\\packages\\dal\\pydal\\adapters\\base.py", line 412, in execute\n    rv = self.cursor.execute(command, *args[1:], **kwargs)\nOperationalError: near "products": syntax error\n'
p294
s.